
usb_kb.elf:     file format elf32-littlenios2
usb_kb.elf
architecture: nios2:r1, flags 0x00000112:
EXEC_P, HAS_SYMS, D_PAGED
start address 0x00000230

Program Header:
    LOAD off    0x00001000 vaddr 0x00000000 paddr 0x00000000 align 2**12
         filesz 0x00000020 memsz 0x00000020 flags r-x
    LOAD off    0x00001020 vaddr 0x00000020 paddr 0x00000020 align 2**12
         filesz 0x000124f8 memsz 0x000124f8 flags r-x
    LOAD off    0x00013518 vaddr 0x00012518 paddr 0x00014004 align 2**12
         filesz 0x00001aec memsz 0x00001aec flags rw-
    LOAD off    0x00015af0 vaddr 0x00015af0 paddr 0x00015af0 align 2**12
         filesz 0x00000000 memsz 0x00000164 flags rw-

Sections:
Idx Name          Size      VMA       LMA       File off  Algn
  0 .entry        00000020  00000000  00000000  00001000  2**5
                  CONTENTS, ALLOC, LOAD, READONLY, CODE
  1 .exceptions   00000210  00000020  00000020  00001020  2**2
                  CONTENTS, ALLOC, LOAD, READONLY, CODE
  2 .text         0001185c  00000230  00000230  00001230  2**2
                  CONTENTS, ALLOC, LOAD, READONLY, CODE
  3 .rodata       00000a8c  00011a8c  00011a8c  00012a8c  2**2
                  CONTENTS, ALLOC, LOAD, READONLY, DATA
  4 .rwdata       00001aec  00012518  00014004  00013518  2**2
                  CONTENTS, ALLOC, LOAD, DATA, SMALL_DATA
  5 .bss          00000164  00015af0  00015af0  00015af0  2**2
                  ALLOC, SMALL_DATA
  6 .sdram        00000000  00015c54  00015c54  00015004  2**0
                  CONTENTS
  7 .onchip_memory2_0 00000000  080010a0  080010a0  00015004  2**0
                  CONTENTS
  8 .comment      00000046  00000000  00000000  00015004  2**0
                  CONTENTS, READONLY
  9 .debug_aranges 00000f18  00000000  00000000  00015050  2**3
                  CONTENTS, READONLY, DEBUGGING
 10 .debug_info   00023753  00000000  00000000  00015f68  2**0
                  CONTENTS, READONLY, DEBUGGING
 11 .debug_abbrev 000090c6  00000000  00000000  000396bb  2**0
                  CONTENTS, READONLY, DEBUGGING
 12 .debug_line   0000b83b  00000000  00000000  00042781  2**0
                  CONTENTS, READONLY, DEBUGGING
 13 .debug_frame  00002384  00000000  00000000  0004dfbc  2**2
                  CONTENTS, READONLY, DEBUGGING
 14 .debug_str    00003a8a  00000000  00000000  00050340  2**0
                  CONTENTS, READONLY, DEBUGGING
 15 .debug_loc    0001786c  00000000  00000000  00053dca  2**0
                  CONTENTS, READONLY, DEBUGGING
 16 .debug_alt_sim_info 00000040  00000000  00000000  0006b638  2**2
                  CONTENTS, READONLY, DEBUGGING
 17 .debug_ranges 000018d0  00000000  00000000  0006b678  2**3
                  CONTENTS, READONLY, DEBUGGING
 18 .thread_model 00000003  00000000  00000000  000702e6  2**0
                  CONTENTS, READONLY
 19 .cpu          0000000c  00000000  00000000  000702e9  2**0
                  CONTENTS, READONLY
 20 .qsys         00000001  00000000  00000000  000702f5  2**0
                  CONTENTS, READONLY
 21 .simulation_enabled 00000001  00000000  00000000  000702f6  2**0
                  CONTENTS, READONLY
 22 .sysid_hash   00000004  00000000  00000000  000702f7  2**0
                  CONTENTS, READONLY
 23 .sysid_base   00000004  00000000  00000000  000702fb  2**0
                  CONTENTS, READONLY
 24 .sysid_time   00000004  00000000  00000000  000702ff  2**0
                  CONTENTS, READONLY
 25 .stderr_dev   0000000b  00000000  00000000  00070303  2**0
                  CONTENTS, READONLY
 26 .stdin_dev    0000000b  00000000  00000000  0007030e  2**0
                  CONTENTS, READONLY
 27 .stdout_dev   0000000b  00000000  00000000  00070319  2**0
                  CONTENTS, READONLY
 28 .sopc_system_name 00000003  00000000  00000000  00070324  2**0
                  CONTENTS, READONLY
 29 .quartus_project_dir 00000045  00000000  00000000  00070327  2**0
                  CONTENTS, READONLY
 30 .jdi          00004d6e  00000000  00000000  0007036c  2**0
                  CONTENTS, READONLY
 31 .sopcinfo     000792b6  00000000  00000000  000750da  2**0
                  CONTENTS, READONLY
SYMBOL TABLE:
00000000 l    d  .entry	00000000 .entry
00000020 l    d  .exceptions	00000000 .exceptions
00000230 l    d  .text	00000000 .text
00011a8c l    d  .rodata	00000000 .rodata
00012518 l    d  .rwdata	00000000 .rwdata
00015af0 l    d  .bss	00000000 .bss
00015c54 l    d  .sdram	00000000 .sdram
080010a0 l    d  .onchip_memory2_0	00000000 .onchip_memory2_0
00000000 l    d  .comment	00000000 .comment
00000000 l    d  .debug_aranges	00000000 .debug_aranges
00000000 l    d  .debug_info	00000000 .debug_info
00000000 l    d  .debug_abbrev	00000000 .debug_abbrev
00000000 l    d  .debug_line	00000000 .debug_line
00000000 l    d  .debug_frame	00000000 .debug_frame
00000000 l    d  .debug_str	00000000 .debug_str
00000000 l    d  .debug_loc	00000000 .debug_loc
00000000 l    d  .debug_alt_sim_info	00000000 .debug_alt_sim_info
00000000 l    d  .debug_ranges	00000000 .debug_ranges
00000000 l    df *ABS*	00000000 ../usb_kb_bsp//obj/HAL/src/crt0.o
00000268 l       .text	00000000 alt_after_alt_main
00000000 l    df *ABS*	00000000 alt_irq_handler.c
00000000 l    df *ABS*	00000000 alt_instruction_exception_entry.c
00000000 l    df *ABS*	00000000 io_handler.c
00000000 l    df *ABS*	00000000 main.c
00015af0 l     O .bss	00000002 ctl_reg.3589
00015af2 l     O .bss	00000002 no_device.3590
00000000 l    df *ABS*	00000000 usb.c
00000000 l    df *ABS*	00000000 printf.c
00000000 l    df *ABS*	00000000 puts.c
00000000 l    df *ABS*	00000000 strlen.c
00000000 l    df *ABS*	00000000 vfprintf.c
0001225e l     O .rodata	00000010 zeroes.4404
000047fc l     F .text	000000bc __sbprintf
0001226e l     O .rodata	00000010 blanks.4403
00000000 l    df *ABS*	00000000 wsetup.c
00000000 l    df *ABS*	00000000 dtoa.c
00004a0c l     F .text	00000228 quorem
00000000 l    df *ABS*	00000000 fflush.c
00000000 l    df *ABS*	00000000 findfp.c
00006564 l     F .text	00000008 __fp_unlock
00006578 l     F .text	0000019c __sinit.part.1
00006714 l     F .text	00000008 __fp_lock
00000000 l    df *ABS*	00000000 mallocr.c
00000000 l    df *ABS*	00000000 fvwrite.c
00000000 l    df *ABS*	00000000 fwalk.c
00000000 l    df *ABS*	00000000 impure.c
00012518 l     O .rwdata	00000424 impure_data
00000000 l    df *ABS*	00000000 locale.c
0001295c l     O .rwdata	00000020 lc_ctype_charset
0001293c l     O .rwdata	00000020 lc_message_charset
0001297c l     O .rwdata	00000038 lconv
00000000 l    df *ABS*	00000000 makebuf.c
00000000 l    df *ABS*	00000000 mallocr.c
00000000 l    df *ABS*	00000000 memchr.c
00000000 l    df *ABS*	00000000 memcpy.c
00000000 l    df *ABS*	00000000 memmove.c
00000000 l    df *ABS*	00000000 memset.c
00000000 l    df *ABS*	00000000 mprec.c
000122a0 l     O .rodata	0000000c p05.2768
00000000 l    df *ABS*	00000000 mallocr.c
00000000 l    df *ABS*	00000000 s_fpclassify.c
00000000 l    df *ABS*	00000000 sbrkr.c
00000000 l    df *ABS*	00000000 stdio.c
00000000 l    df *ABS*	00000000 strcmp.c
00000000 l    df *ABS*	00000000 vfprintf.c
00009be8 l     F .text	000000fc __sprint_r.part.0
000123c4 l     O .rodata	00000010 zeroes.4349
0000b224 l     F .text	000000bc __sbprintf
000123d4 l     O .rodata	00000010 blanks.4348
00000000 l    df *ABS*	00000000 writer.c
00000000 l    df *ABS*	00000000 closer.c
00000000 l    df *ABS*	00000000 mallocr.c
00000000 l    df *ABS*	00000000 fclose.c
00000000 l    df *ABS*	00000000 fputwc.c
00000000 l    df *ABS*	00000000 fstatr.c
00000000 l    df *ABS*	00000000 int_errno.c
00000000 l    df *ABS*	00000000 isattyr.c
00000000 l    df *ABS*	00000000 lseekr.c
00000000 l    df *ABS*	00000000 readr.c
00000000 l    df *ABS*	00000000 wbuf.c
00000000 l    df *ABS*	00000000 wcrtomb.c
00000000 l    df *ABS*	00000000 wctomb_r.c
00000000 l    df *ABS*	00000000 libgcc2.c
00000000 l    df *ABS*	00000000 libgcc2.c
00000000 l    df *ABS*	00000000 lib2-divmod.c
00000000 l    df *ABS*	00000000 lib2-mul.c
00000000 l    df *ABS*	00000000 adddf3.c
00000000 l    df *ABS*	00000000 divdf3.c
00000000 l    df *ABS*	00000000 eqdf2.c
00000000 l    df *ABS*	00000000 gedf2.c
00000000 l    df *ABS*	00000000 ledf2.c
00000000 l    df *ABS*	00000000 muldf3.c
00000000 l    df *ABS*	00000000 subdf3.c
00000000 l    df *ABS*	00000000 fixdfsi.c
00000000 l    df *ABS*	00000000 floatsidf.c
00000000 l    df *ABS*	00000000 floatunsidf.c
00000000 l    df *ABS*	00000000 libgcc2.c
00000000 l    df *ABS*	00000000 libgcc2.c
00000000 l    df *ABS*	00000000 alt_close.c
0000f26c l     F .text	0000003c alt_get_errno
00000000 l    df *ABS*	00000000 alt_dev.c
0000f380 l     F .text	0000002c alt_dev_null_write
00000000 l    df *ABS*	00000000 alt_errno.c
00000000 l    df *ABS*	00000000 alt_fstat.c
0000f3ac l     F .text	0000003c alt_get_errno
00000000 l    df *ABS*	00000000 alt_isatty.c
0000f4a0 l     F .text	0000003c alt_get_errno
00000000 l    df *ABS*	00000000 alt_load.c
0000f588 l     F .text	00000068 alt_load_section
00000000 l    df *ABS*	00000000 alt_lseek.c
0000f674 l     F .text	0000003c alt_get_errno
00000000 l    df *ABS*	00000000 alt_main.c
00000000 l    df *ABS*	00000000 alt_malloc_lock.c
00000000 l    df *ABS*	00000000 alt_read.c
0000f850 l     F .text	0000003c alt_get_errno
00000000 l    df *ABS*	00000000 alt_release_fd.c
00000000 l    df *ABS*	00000000 alt_sbrk.c
00013ff4 l     O .rwdata	00000004 heap_end
00000000 l    df *ABS*	00000000 alt_usleep.c
00000000 l    df *ABS*	00000000 alt_write.c
0000faf4 l     F .text	0000003c alt_get_errno
00000000 l    df *ABS*	00000000 alt_sys_init.c
0000fc30 l     F .text	00000034 alt_dev_reg
00012f64 l     O .rwdata	00001060 jtag_uart_0
00000000 l    df *ABS*	00000000 altera_avalon_jtag_uart_fd.c
00000000 l    df *ABS*	00000000 altera_avalon_jtag_uart_init.c
0000ff0c l     F .text	0000020c altera_avalon_jtag_uart_irq
00010118 l     F .text	000000a0 altera_avalon_jtag_uart_timeout
00000000 l    df *ABS*	00000000 altera_avalon_jtag_uart_ioctl.c
00000000 l    df *ABS*	00000000 altera_avalon_jtag_uart_read.c
00000000 l    df *ABS*	00000000 altera_avalon_jtag_uart_write.c
00000000 l    df *ABS*	00000000 alt_alarm_start.c
00000000 l    df *ABS*	00000000 alt_busy_sleep.c
00000000 l    df *ABS*	00000000 alt_dcache_flush_all.c
00000000 l    df *ABS*	00000000 alt_dev_llist_insert.c
000109f4 l     F .text	0000003c alt_get_errno
00000000 l    df *ABS*	00000000 alt_do_ctors.c
00000000 l    df *ABS*	00000000 alt_do_dtors.c
00000000 l    df *ABS*	00000000 alt_icache_flush_all.c
00000000 l    df *ABS*	00000000 alt_iic.c
00000000 l    df *ABS*	00000000 alt_iic_isr_register.c
00000000 l    df *ABS*	00000000 alt_io_redirect.c
00010e54 l     F .text	000000e4 alt_open_fd
00000000 l    df *ABS*	00000000 alt_irq_vars.c
00000000 l    df *ABS*	00000000 alt_open.c
00010fb4 l     F .text	0000003c alt_get_errno
00010ff0 l     F .text	000000ec alt_file_locked
00000000 l    df *ABS*	00000000 alt_tick.c
00000000 l    df *ABS*	00000000 altera_nios2_gen2_irq.c
00000000 l    df *ABS*	00000000 alt_find_dev.c
00000000 l    df *ABS*	00000000 alt_find_file.c
00000000 l    df *ABS*	00000000 alt_get_fd.c
00000000 l    df *ABS*	00000000 atexit.c
00000000 l    df *ABS*	00000000 exit.c
00000000 l    df *ABS*	00000000 memcmp.c
00000000 l    df *ABS*	00000000 __atexit.c
00000000 l    df *ABS*	00000000 __call_atexit.c
00000000 l    df *ABS*	00000000 alt_exit.c
00015b28 g     O .bss	00000004 alt_instruction_exception_handler
0000922c g     F .text	00000074 _mprec_log10
00009318 g     F .text	0000008c __any_on
0000b7d8 g     F .text	00000054 _isatty_r
000122ac g     O .rodata	00000028 __mprec_tinytens
0000f78c g     F .text	0000007c alt_main
00002398 g     F .text	000000c0 _puts_r
00015b54 g     O .bss	00000100 alt_irq
0000b82c g     F .text	00000060 _lseek_r
00014004 g       *ABS*	00000000 __flash_rwdata_start
0000dc44 g     F .text	00000088 .hidden __eqdf2
00015c54 g       *ABS*	00000000 __alt_heap_start
0000235c g     F .text	0000003c printf
0000ba44 g     F .text	0000009c _wcrtomb_r
00009aa8 g     F .text	0000005c __sseek
000068c4 g     F .text	00000010 __sinit
0000b8ec g     F .text	00000140 __swbuf_r
00007398 g     F .text	0000007c _setlocale_r
0000671c g     F .text	00000078 __sfmoreglue
0000f82c g     F .text	00000024 __malloc_unlock
0000222c g     F .text	00000080 UsbGetRetryCnt
00008068 g     F .text	0000015c memmove
0000026c g     F .text	000000b0 IO_init
000068ac g     F .text	00000018 _cleanup
000082ec g     F .text	000000a8 _Balloc
0000dccc g     F .text	000000dc .hidden __gtdf2
000113dc g     F .text	00000024 altera_nios2_gen2_irq_init
00000000 g     F .entry	0000000c __reset
00000020 g       *ABS*	00000000 __flash_exceptions_start
0000b77c g     F .text	0000005c _fstat_r
00015b0c g     O .bss	00000004 errno
00009a24 g     F .text	00000008 __seofread
00015b14 g     O .bss	00000004 alt_argv
0001bfc4 g       *ABS*	00000000 _gp
0000fac4 g     F .text	00000030 usleep
00012de4 g     O .rwdata	00000180 alt_fd_list
00011400 g     F .text	00000090 alt_find_dev
00007f20 g     F .text	00000148 memcpy
0000656c g     F .text	0000000c _cleanup_r
0000f084 g     F .text	000000dc .hidden __floatsidf
00010f38 g     F .text	0000007c alt_io_redirect
0000dda8 g     F .text	000000f4 .hidden __ltdf2
00011a8c g       *ABS*	00000000 __DTOR_END__
00002458 g     F .text	00000014 puts
0001165c g     F .text	0000009c alt_exception_cause_generated_bad_addr
00009908 g     F .text	00000074 __fpclassifyd
00009188 g     F .text	000000a4 __ratio
0000b208 g     F .text	0000001c __vfiprintf_internal
00010310 g     F .text	0000021c altera_avalon_jtag_uart_read
0000232c g     F .text	00000030 _printf_r
080010a0 g       *ABS*	00000000 __alt_mem_onchip_memory2_0
0000c8e4 g     F .text	00000064 .hidden __udivsi3
0000f4dc g     F .text	000000ac isatty
000122fc g     O .rodata	000000c8 __mprec_tens
00007414 g     F .text	0000000c __locale_charset
00015b08 g     O .bss	00000004 __malloc_top_pad
000018b8 g     F .text	00000268 UsbGetConfigDesc2
00013fcc g     O .rwdata	00000004 __mb_cur_max
00007444 g     F .text	0000000c _localeconv_r
00008720 g     F .text	0000003c __i2b
00006d48 g     F .text	000004c8 __sfvwrite_r
0000997c g     F .text	00000054 _sbrk_r
0000b88c g     F .text	00000060 _read_r
00013fec g     O .rwdata	00000004 alt_max_fd
0000b470 g     F .text	000000f0 _fclose_r
00006534 g     F .text	00000030 fflush
00015b04 g     O .bss	00000004 __malloc_max_sbrked_mem
0000c9c8 g     F .text	000008ac .hidden __adddf3
00008f30 g     F .text	0000010c __b2d
0000c228 g     F .text	000005c4 .hidden __umoddi3
0000f6b0 g     F .text	000000dc lseek
00013fc4 g     O .rwdata	00000004 _global_impure_ptr
000093a4 g     F .text	00000564 _realloc_r
00015c54 g       *ABS*	00000000 __bss_end
00010d64 g     F .text	000000f0 alt_iic_isr_register
000112d4 g     F .text	00000108 alt_tick
0000bc2c g     F .text	000005fc .hidden __udivdi3
0000b6d8 g     F .text	00000024 _fputwc_r
000122d4 g     O .rodata	00000028 __mprec_bigtens
00008504 g     F .text	00000104 __s2b
0000f160 g     F .text	000000a8 .hidden __floatunsidf
00008c70 g     F .text	00000060 __mcmp
00001308 g     F .text	00000100 UsbSetAddress
000068e4 g     F .text	00000018 __fp_lock_all
00010d18 g     F .text	0000004c alt_ic_irq_enabled
00011238 g     F .text	0000009c alt_alarm_stop
00015b1c g     O .bss	00000004 alt_irq_active
000000fc g     F .exceptions	000000d4 alt_irq_handler
00012dbc g     O .rwdata	00000028 alt_dev_null
000109d4 g     F .text	00000020 alt_dcache_flush_all
00008608 g     F .text	00000068 __hi0bits
000003a4 g     F .text	00000080 IO_read
0000f004 g     F .text	00000080 .hidden __fixdfsi
00014004 g       *ABS*	00000000 __ram_rwdata_end
00013fe4 g     O .rwdata	00000008 alt_dev_list
0000fb30 g     F .text	00000100 write
00012518 g       *ABS*	00000000 __ram_rodata_end
0000f3e8 g     F .text	000000b8 fstat
0000dda8 g     F .text	000000f4 .hidden __ledf2
000022ac g     F .text	00000080 UsbPrintMem
000089e8 g     F .text	00000140 __pow5mult
00009cfc g     F .text	0000150c ___vfiprintf_internal_r
00015afc g     O .bss	00000004 __nlocale_changed
0000c948 g     F .text	00000058 .hidden __umodsi3
00015c54 g       *ABS*	00000000 end
0000fe4c g     F .text	000000c0 altera_avalon_jtag_uart_init
000001d0 g     F .exceptions	00000060 alt_instruction_exception_entry
00011a8c g       *ABS*	00000000 __CTOR_LIST__
08000000 g       *ABS*	00000000 __alt_stack_pointer
0000f208 g     F .text	00000064 .hidden __clzsi2
0001052c g     F .text	00000224 altera_avalon_jtag_uart_write
000068d4 g     F .text	00000004 __sfp_lock_acquire
00007e3c g     F .text	000000e4 memchr
00002504 g     F .text	000022dc ___vfprintf_internal_r
00001c20 g     F .text	00000100 UsbClassRequest
00006a38 g     F .text	00000310 _free_r
00007420 g     F .text	00000010 __locale_mb_cur_max
000118d8 g     F .text	00000180 __call_exitprocs
00015af8 g     O .bss	00000004 __mlocale_changed
00013fd0 g     O .rwdata	00000004 __malloc_sbrk_base
00000230 g     F .text	0000003c _start
00015b20 g     O .bss	00000004 _alt_tick_rate
00008b28 g     F .text	00000148 __lshift
00015b24 g     O .bss	00000004 _alt_nticks
0000f88c g     F .text	00000104 read
0000fc9c g     F .text	0000004c alt_sys_init
000117c0 g     F .text	00000118 __register_exitproc
0000875c g     F .text	0000028c __multiply
000101b8 g     F .text	00000068 altera_avalon_jtag_uart_close
0000c9a0 g     F .text	00000028 .hidden __mulsi3
00012518 g       *ABS*	00000000 __ram_rwdata_start
00011a8c g       *ABS*	00000000 __ram_rodata_start
00015b2c g     O .bss	00000028 __malloc_current_mallinfo
0000903c g     F .text	0000014c __d2b
00001408 g     F .text	00000148 UsbGetDeviceDesc1
0000fce8 g     F .text	00000060 altera_avalon_jtag_uart_read_fd
00011598 g     F .text	000000c4 alt_get_fd
0001087c g     F .text	00000158 alt_busy_sleep
0000b340 g     F .text	00000054 _close_r
00011744 g     F .text	0000007c memcmp
0000fda8 g     F .text	00000050 altera_avalon_jtag_uart_close_fd
00015c54 g       *ABS*	00000000 __alt_stack_base
0000fdf8 g     F .text	00000054 altera_avalon_jtag_uart_ioctl_fd
000048b8 g     F .text	00000154 __swsetup_r
0000d274 g     F .text	000009d0 .hidden __divdf3
00006794 g     F .text	00000118 __sfp
000092a0 g     F .text	00000078 __copybits
000129b4 g     O .rwdata	00000408 __malloc_av_
000068e0 g     F .text	00000004 __sinit_lock_release
0000de9c g     F .text	0000086c .hidden __muldf3
000099d0 g     F .text	00000054 __sread
000021a8 g     F .text	00000084 UsbWaitTDListDone
00011490 g     F .text	00000108 alt_find_file
00010a30 g     F .text	000000a4 alt_dev_llist_insert
0000f808 g     F .text	00000024 __malloc_lock
0000fa14 g     F .text	000000b0 sbrk
000064d8 g     F .text	0000005c _fflush_r
0000b394 g     F .text	000000dc _calloc_r
00015af0 g       *ABS*	00000000 __bss_start
000081c4 g     F .text	00000128 memset
00000424 g     F .text	00000d94 main
00015b18 g     O .bss	00000004 alt_envp
00015b00 g     O .bss	00000004 __malloc_max_total_mem
0000fd48 g     F .text	00000060 altera_avalon_jtag_uart_write_fd
00001b20 g     F .text	00000100 UsbSetConfig
0000ba2c g     F .text	00000018 __swbuf
00009b04 g     F .text	00000008 __sclose
08000000 g       *ABS*	00000000 __alt_heap_limit
0000b560 g     F .text	00000014 fclose
00004c34 g     F .text	00001688 _dtoa_r
00007630 g     F .text	0000080c _malloc_r
0000bba0 g     F .text	00000030 __ascii_wctomb
00013ff0 g     O .rwdata	00000004 alt_errno
00007210 g     F .text	000000c4 _fwalk
0000c7ec g     F .text	00000084 .hidden __divsi3
00006914 g     F .text	00000124 _malloc_trim_r
00001d20 g     F .text	00000148 UsbGetHidDesc
00011a8c g       *ABS*	00000000 __CTOR_END__
00009b0c g     F .text	000000dc strcmp
00011a8c g       *ABS*	00000000 __flash_rodata_start
00011a8c g       *ABS*	00000000 __DTOR_LIST__
0000dc44 g     F .text	00000088 .hidden __nedf2
00001210 g     F .text	00000044 UsbRead
0000fc64 g     F .text	00000038 alt_irq_init
0000f990 g     F .text	00000084 alt_release_fd
000123e4 g     O .rodata	00000100 .hidden __clz_tab
00015af4 g     O .bss	00000004 _PathLocale
000116f8 g     F .text	00000014 atexit
0000b2e0 g     F .text	00000060 _write_r
00007450 g     F .text	00000018 setlocale
00013fc8 g     O .rwdata	00000004 _impure_ptr
00015b10 g     O .bss	00000004 alt_argc
000062bc g     F .text	0000021c __sflush_r
00010b34 g     F .text	00000060 _do_dtors
0000743c g     F .text	00000008 __locale_cjk_lang
00000020 g       .exceptions	00000000 alt_irq_entry
00008ecc g     F .text	00000064 __ulp
000068fc g     F .text	00000018 __fp_unlock_all
00013fdc g     O .rwdata	00000008 alt_fs_list
00001e68 g     F .text	00000340 UsbGetReportDesc
00000020 g       *ABS*	00000000 __ram_exceptions_start
00007468 g     F .text	0000000c localeconv
00010bb4 g     F .text	00000050 alt_ic_isr_register
00014004 g       *ABS*	00000000 _edata
00015c54 g       *ABS*	00000000 _end
000011b8 g     F .text	00000058 UsbWrite
0000b574 g     F .text	00000164 __fputwc
00000230 g       *ABS*	00000000 __ram_exceptions_end
00010220 g     F .text	000000f0 altera_avalon_jtag_uart_ioctl
00010c8c g     F .text	0000008c alt_ic_irq_disable
00009a2c g     F .text	0000007c __swrite
00013fd4 g     O .rwdata	00000004 __malloc_trim_threshold
00007430 g     F .text	0000000c __locale_msgcharset
0001170c g     F .text	00000038 exit
000072d4 g     F .text	000000c4 _fwalk_reent
00008cd0 g     F .text	000001fc __mdiff
0000c870 g     F .text	00000074 .hidden __modsi3
08000000 g       *ABS*	00000000 __alt_data_end
00000020 g     F .exceptions	00000000 alt_exception
000068d8 g     F .text	00000004 __sfp_lock_release
00000000 g       *ABS*	00000000 __alt_mem_sdram
0000031c g     F .text	00000088 IO_write
00011a58 g     F .text	00000034 _exit
00010750 g     F .text	0000012c alt_alarm_start
00007474 g     F .text	000001bc __smakebuf_r
0000246c g     F .text	00000098 strlen
000110dc g     F .text	0000015c open
0000dccc g     F .text	000000dc .hidden __gedf2
00013fd8 g     O .rwdata	00000004 __wctomb
00009ce4 g     F .text	00000018 __sprint_r
00010b94 g     F .text	00000020 alt_icache_flush_all
00013ff8 g     O .rwdata	00000004 alt_priority_mask
00010c04 g     F .text	00000088 alt_ic_irq_enable
000047e0 g     F .text	0000001c __vfprintf_internal
0000bbd0 g     F .text	0000005c _wctomb_r
0000e708 g     F .text	000008fc .hidden __subdf3
00008670 g     F .text	000000b0 __lo0bits
00001728 g     F .text	00000190 UsbGetConfigDesc1
00013ffc g     O .rwdata	00000008 alt_alarm_list
00010ad4 g     F .text	00000060 _do_ctors
00001254 g     F .text	000000b4 UsbSoftReset
0000bae0 g     F .text	000000c0 wcrtomb
0000f2a8 g     F .text	000000d8 close
00001550 g     F .text	000001d8 UsbGetDeviceDesc2
0000f5f0 g     F .text	00000084 alt_load
0000b6fc g     F .text	00000080 fputwc
000068dc g     F .text	00000004 __sinit_lock_acquire
000083bc g     F .text	00000148 __multadd
00008394 g     F .text	00000028 _Bfree



Disassembly of section .entry:

00000000 <__reset>:
   0:	00400034 	movhi	at,0
   4:	08408c14 	ori	at,at,560
   8:	0800683a 	jmp	at
	...

Disassembly of section .exceptions:

00000020 <alt_exception>:
  20:	deffed04 	addi	sp,sp,-76
  24:	dfc00015 	stw	ra,0(sp)
  28:	d8400215 	stw	at,8(sp)
  2c:	d8800315 	stw	r2,12(sp)
  30:	d8c00415 	stw	r3,16(sp)
  34:	d9000515 	stw	r4,20(sp)
  38:	d9400615 	stw	r5,24(sp)
  3c:	d9800715 	stw	r6,28(sp)
  40:	d9c00815 	stw	r7,32(sp)
  44:	000b307a 	rdctl	r5,estatus
  48:	da000915 	stw	r8,36(sp)
  4c:	da400a15 	stw	r9,40(sp)
  50:	da800b15 	stw	r10,44(sp)
  54:	dac00c15 	stw	r11,48(sp)
  58:	db000d15 	stw	r12,52(sp)
  5c:	db400e15 	stw	r13,56(sp)
  60:	db800f15 	stw	r14,60(sp)
  64:	dbc01015 	stw	r15,64(sp)
  68:	d9401115 	stw	r5,68(sp)
  6c:	ebffff04 	addi	r15,ea,-4
  70:	dbc01215 	stw	r15,72(sp)
  74:	0009313a 	rdctl	r4,ipending
  78:	2880004c 	andi	r2,r5,1
  7c:	10000326 	beq	r2,zero,8c <alt_exception+0x6c>
  80:	20000226 	beq	r4,zero,8c <alt_exception+0x6c>
  84:	00000fc0 	call	fc <alt_irq_handler>
  88:	00000706 	br	a8 <alt_exception+0x88>
  8c:	df401215 	stw	ea,72(sp)
  90:	e8bfff17 	ldw	r2,-4(ea)
  94:	e93fff04 	addi	r4,ea,-4
  98:	00001d00 	call	1d0 <alt_instruction_exception_entry>
  9c:	1000021e 	bne	r2,zero,a8 <alt_exception+0x88>
  a0:	ebffff04 	addi	r15,ea,-4
  a4:	dbc01215 	stw	r15,72(sp)
  a8:	d9401117 	ldw	r5,68(sp)
  ac:	df401217 	ldw	ea,72(sp)
  b0:	dfc00017 	ldw	ra,0(sp)
  b4:	2801707a 	wrctl	estatus,r5
  b8:	d8400217 	ldw	at,8(sp)
  bc:	d8800317 	ldw	r2,12(sp)
  c0:	d8c00417 	ldw	r3,16(sp)
  c4:	d9000517 	ldw	r4,20(sp)
  c8:	d9400617 	ldw	r5,24(sp)
  cc:	d9800717 	ldw	r6,28(sp)
  d0:	d9c00817 	ldw	r7,32(sp)
  d4:	da000917 	ldw	r8,36(sp)
  d8:	da400a17 	ldw	r9,40(sp)
  dc:	da800b17 	ldw	r10,44(sp)
  e0:	dac00c17 	ldw	r11,48(sp)
  e4:	db000d17 	ldw	r12,52(sp)
  e8:	db400e17 	ldw	r13,56(sp)
  ec:	db800f17 	ldw	r14,60(sp)
  f0:	dbc01017 	ldw	r15,64(sp)
  f4:	dec01304 	addi	sp,sp,76
  f8:	ef80083a 	eret

000000fc <alt_irq_handler>:
  fc:	defff904 	addi	sp,sp,-28
 100:	dfc00615 	stw	ra,24(sp)
 104:	df000515 	stw	fp,20(sp)
 108:	df000504 	addi	fp,sp,20
 10c:	0001883a 	nop
 110:	0005313a 	rdctl	r2,ipending
 114:	e0bffe15 	stw	r2,-8(fp)
 118:	e0bffe17 	ldw	r2,-8(fp)
 11c:	e0bffb15 	stw	r2,-20(fp)
 120:	e03ffd15 	stw	zero,-12(fp)
 124:	00800044 	movi	r2,1
 128:	e0bffc15 	stw	r2,-16(fp)
 12c:	e0fffb17 	ldw	r3,-20(fp)
 130:	e0bffc17 	ldw	r2,-16(fp)
 134:	1884703a 	and	r2,r3,r2
 138:	10001426 	beq	r2,zero,18c <alt_irq_handler+0x90>
 13c:	00800074 	movhi	r2,1
 140:	1096d504 	addi	r2,r2,23380
 144:	e0fffd17 	ldw	r3,-12(fp)
 148:	180690fa 	slli	r3,r3,3
 14c:	10c5883a 	add	r2,r2,r3
 150:	10c00017 	ldw	r3,0(r2)
 154:	00800074 	movhi	r2,1
 158:	1096d504 	addi	r2,r2,23380
 15c:	e13ffd17 	ldw	r4,-12(fp)
 160:	200890fa 	slli	r4,r4,3
 164:	1105883a 	add	r2,r2,r4
 168:	10800104 	addi	r2,r2,4
 16c:	10800017 	ldw	r2,0(r2)
 170:	1009883a 	mov	r4,r2
 174:	183ee83a 	callr	r3
 178:	0001883a 	nop
 17c:	0005313a 	rdctl	r2,ipending
 180:	e0bfff15 	stw	r2,-4(fp)
 184:	e0bfff17 	ldw	r2,-4(fp)
 188:	00000706 	br	1a8 <alt_irq_handler+0xac>
 18c:	e0bffc17 	ldw	r2,-16(fp)
 190:	1085883a 	add	r2,r2,r2
 194:	e0bffc15 	stw	r2,-16(fp)
 198:	e0bffd17 	ldw	r2,-12(fp)
 19c:	10800044 	addi	r2,r2,1
 1a0:	e0bffd15 	stw	r2,-12(fp)
 1a4:	003fe106 	br	12c <__alt_mem_onchip_memory2_0+0xf7fff08c>
 1a8:	e0bffb15 	stw	r2,-20(fp)
 1ac:	e0bffb17 	ldw	r2,-20(fp)
 1b0:	103fdb1e 	bne	r2,zero,120 <__alt_mem_onchip_memory2_0+0xf7fff080>
 1b4:	0001883a 	nop
 1b8:	0001883a 	nop
 1bc:	e037883a 	mov	sp,fp
 1c0:	dfc00117 	ldw	ra,4(sp)
 1c4:	df000017 	ldw	fp,0(sp)
 1c8:	dec00204 	addi	sp,sp,8
 1cc:	f800283a 	ret

000001d0 <alt_instruction_exception_entry>:
 1d0:	defffb04 	addi	sp,sp,-20
 1d4:	dfc00415 	stw	ra,16(sp)
 1d8:	df000315 	stw	fp,12(sp)
 1dc:	df000304 	addi	fp,sp,12
 1e0:	e13fff15 	stw	r4,-4(fp)
 1e4:	00bfffc4 	movi	r2,-1
 1e8:	e0bffd15 	stw	r2,-12(fp)
 1ec:	e03ffe15 	stw	zero,-8(fp)
 1f0:	d0a6d917 	ldw	r2,-25756(gp)
 1f4:	10000726 	beq	r2,zero,214 <alt_instruction_exception_entry+0x44>
 1f8:	d0a6d917 	ldw	r2,-25756(gp)
 1fc:	e0fffd17 	ldw	r3,-12(fp)
 200:	e1bffe17 	ldw	r6,-8(fp)
 204:	e17fff17 	ldw	r5,-4(fp)
 208:	1809883a 	mov	r4,r3
 20c:	103ee83a 	callr	r2
 210:	00000206 	br	21c <alt_instruction_exception_entry+0x4c>
 214:	003da03a 	break	0
 218:	0005883a 	mov	r2,zero
 21c:	e037883a 	mov	sp,fp
 220:	dfc00117 	ldw	ra,4(sp)
 224:	df000017 	ldw	fp,0(sp)
 228:	dec00204 	addi	sp,sp,8
 22c:	f800283a 	ret

Disassembly of section .text:

00000230 <_start>:
     230:	06c20034 	movhi	sp,2048
     234:	dec00014 	ori	sp,sp,0
     238:	06800074 	movhi	gp,1
     23c:	d6aff114 	ori	gp,gp,49092
     240:	00800074 	movhi	r2,1
     244:	1096bc14 	ori	r2,r2,23280
     248:	00c00074 	movhi	r3,1
     24c:	18d71514 	ori	r3,r3,23636
     250:	10c00326 	beq	r2,r3,260 <_start+0x30>
     254:	10000015 	stw	zero,0(r2)
     258:	10800104 	addi	r2,r2,4
     25c:	10fffd36 	bltu	r2,r3,254 <__alt_mem_onchip_memory2_0+0xf7fff1b4>
     260:	000f5f00 	call	f5f0 <alt_load>
     264:	000f78c0 	call	f78c <alt_main>

00000268 <alt_after_alt_main>:
     268:	003fff06 	br	268 <__alt_mem_onchip_memory2_0+0xf7fff1c8>

0000026c <IO_init>:
     26c:	deffff04 	addi	sp,sp,-4
     270:	df000015 	stw	fp,0(sp)
     274:	d839883a 	mov	fp,sp
     278:	00820034 	movhi	r2,2048
     27c:	10840c04 	addi	r2,r2,4144
     280:	00c00044 	movi	r3,1
     284:	10c00005 	stb	r3,0(r2)
     288:	00820034 	movhi	r2,2048
     28c:	10841004 	addi	r2,r2,4160
     290:	00c00044 	movi	r3,1
     294:	10c00005 	stb	r3,0(r2)
     298:	00820034 	movhi	r2,2048
     29c:	10841804 	addi	r2,r2,4192
     2a0:	00c00044 	movi	r3,1
     2a4:	10c00005 	stb	r3,0(r2)
     2a8:	00820034 	movhi	r2,2048
     2ac:	10841404 	addi	r2,r2,4176
     2b0:	00c00044 	movi	r3,1
     2b4:	10c00005 	stb	r3,0(r2)
     2b8:	00820034 	movhi	r2,2048
     2bc:	10842004 	addi	r2,r2,4224
     2c0:	10000015 	stw	zero,0(r2)
     2c4:	00820034 	movhi	r2,2048
     2c8:	10841c04 	addi	r2,r2,4208
     2cc:	10000015 	stw	zero,0(r2)
     2d0:	00820034 	movhi	r2,2048
     2d4:	10841004 	addi	r2,r2,4160
     2d8:	10000005 	stb	zero,0(r2)
     2dc:	00820034 	movhi	r2,2048
     2e0:	10840c04 	addi	r2,r2,4144
     2e4:	10000005 	stb	zero,0(r2)
     2e8:	00820034 	movhi	r2,2048
     2ec:	10840c04 	addi	r2,r2,4144
     2f0:	00c00044 	movi	r3,1
     2f4:	10c00005 	stb	r3,0(r2)
     2f8:	00820034 	movhi	r2,2048
     2fc:	10841004 	addi	r2,r2,4160
     300:	00c00044 	movi	r3,1
     304:	10c00005 	stb	r3,0(r2)
     308:	0001883a 	nop
     30c:	e037883a 	mov	sp,fp
     310:	df000017 	ldw	fp,0(sp)
     314:	dec00104 	addi	sp,sp,4
     318:	f800283a 	ret

0000031c <IO_write>:
     31c:	defffd04 	addi	sp,sp,-12
     320:	df000215 	stw	fp,8(sp)
     324:	df000204 	addi	fp,sp,8
     328:	2007883a 	mov	r3,r4
     32c:	2805883a 	mov	r2,r5
     330:	e0fffe05 	stb	r3,-8(fp)
     334:	e0bfff0d 	sth	r2,-4(fp)
     338:	00820034 	movhi	r2,2048
     33c:	10842004 	addi	r2,r2,4224
     340:	e0fffe03 	ldbu	r3,-8(fp)
     344:	10c00015 	stw	r3,0(r2)
     348:	00820034 	movhi	r2,2048
     34c:	10841004 	addi	r2,r2,4160
     350:	10000005 	stb	zero,0(r2)
     354:	00820034 	movhi	r2,2048
     358:	10841404 	addi	r2,r2,4176
     35c:	10000005 	stb	zero,0(r2)
     360:	00820034 	movhi	r2,2048
     364:	10841c04 	addi	r2,r2,4208
     368:	e0ffff0b 	ldhu	r3,-4(fp)
     36c:	10c00015 	stw	r3,0(r2)
     370:	00820034 	movhi	r2,2048
     374:	10841404 	addi	r2,r2,4176
     378:	00c00044 	movi	r3,1
     37c:	10c00005 	stb	r3,0(r2)
     380:	00820034 	movhi	r2,2048
     384:	10841004 	addi	r2,r2,4160
     388:	00c00044 	movi	r3,1
     38c:	10c00005 	stb	r3,0(r2)
     390:	0001883a 	nop
     394:	e037883a 	mov	sp,fp
     398:	df000017 	ldw	fp,0(sp)
     39c:	dec00104 	addi	sp,sp,4
     3a0:	f800283a 	ret

000003a4 <IO_read>:
     3a4:	defffd04 	addi	sp,sp,-12
     3a8:	df000215 	stw	fp,8(sp)
     3ac:	df000204 	addi	fp,sp,8
     3b0:	2005883a 	mov	r2,r4
     3b4:	e0bfff05 	stb	r2,-4(fp)
     3b8:	00820034 	movhi	r2,2048
     3bc:	10842004 	addi	r2,r2,4224
     3c0:	e0ffff03 	ldbu	r3,-4(fp)
     3c4:	10c00015 	stw	r3,0(r2)
     3c8:	00820034 	movhi	r2,2048
     3cc:	10841004 	addi	r2,r2,4160
     3d0:	10000005 	stb	zero,0(r2)
     3d4:	00820034 	movhi	r2,2048
     3d8:	10841804 	addi	r2,r2,4192
     3dc:	10000005 	stb	zero,0(r2)
     3e0:	00820034 	movhi	r2,2048
     3e4:	10841c04 	addi	r2,r2,4208
     3e8:	10800017 	ldw	r2,0(r2)
     3ec:	e0bffe0d 	sth	r2,-8(fp)
     3f0:	00820034 	movhi	r2,2048
     3f4:	10841804 	addi	r2,r2,4192
     3f8:	00c00044 	movi	r3,1
     3fc:	10c00005 	stb	r3,0(r2)
     400:	00820034 	movhi	r2,2048
     404:	10841004 	addi	r2,r2,4160
     408:	00c00044 	movi	r3,1
     40c:	10c00005 	stb	r3,0(r2)
     410:	e0bffe0b 	ldhu	r2,-8(fp)
     414:	e037883a 	mov	sp,fp
     418:	df000017 	ldw	fp,0(sp)
     41c:	dec00104 	addi	sp,sp,4
     420:	f800283a 	ret

00000424 <main>:
//
//                                Main function
//
//----------------------------------------------------------------------------------------//
int main(void)
{
     424:	defff704 	addi	sp,sp,-36
     428:	dfc00815 	stw	ra,32(sp)
     42c:	df000715 	stw	fp,28(sp)
     430:	df000704 	addi	fp,sp,28
	IO_init();
     434:	000026c0 	call	26c <IO_init>

	unsigned short intStat;
	unsigned short usb_ctl_val;
	static unsigned short ctl_reg = 0;
	static unsigned short no_device = 0;
	unsigned short fs_device = 0;
     438:	e03ffa0d 	sth	zero,-24(fp)
	int keycode = 0;
     43c:	e03ffb15 	stw	zero,-20(fp)
	int modifier = 0;
     440:	e03ffc15 	stw	zero,-16(fp)
	int * modifier_base;
	modifier_base = 0x8001020;
     444:	00820034 	movhi	r2,2048
     448:	10840804 	addi	r2,r2,4128
     44c:	e0bffd15 	stw	r2,-12(fp)
	unsigned char toggle = 0;
     450:	e03ff985 	stb	zero,-26(fp)
	unsigned char data_size;
	unsigned char hot_plug_count;
	unsigned short code;

	printf("USB keyboard setup...\n\n");
     454:	01000074 	movhi	r4,1
     458:	2106a304 	addi	r4,r4,6796
     45c:	00024580 	call	2458 <puts>

	//----------------------------------------SIE1 initial---------------------------------------------------//
	USB_HOT_PLUG:
	UsbSoftReset();
     460:	00012540 	call	1254 <UsbSoftReset>

	// STEP 1a:
	UsbWrite (HPI_SIE1_MSG_ADR, 0);
     464:	000b883a 	mov	r5,zero
     468:	01005104 	movi	r4,324
     46c:	00011b80 	call	11b8 <UsbWrite>
	UsbWrite (HOST1_STAT_REG, 0xFFFF);
     470:	017fffd4 	movui	r5,65535
     474:	01302414 	movui	r4,49296
     478:	00011b80 	call	11b8 <UsbWrite>

	/* Set HUSB_pEOT time */
	UsbWrite(HUSB_pEOT, 600); // adjust the according to your USB device speed
     47c:	01409604 	movi	r5,600
     480:	01006d04 	movi	r4,436
     484:	00011b80 	call	11b8 <UsbWrite>

	usb_ctl_val = SOFEOP1_TO_CPU_EN | RESUME1_TO_HPI_EN;// | SOFEOP1_TO_HPI_EN;
     488:	00811004 	movi	r2,1088
     48c:	e0bff90d 	sth	r2,-28(fp)
	UsbWrite(HPI_IRQ_ROUTING_REG, usb_ctl_val);
     490:	e0bff90b 	ldhu	r2,-28(fp)
     494:	100b883a 	mov	r5,r2
     498:	01005084 	movi	r4,322
     49c:	00011b80 	call	11b8 <UsbWrite>

	intStat = A_CHG_IRQ_EN | SOF_EOP_IRQ_EN ;
     4a0:	00808404 	movi	r2,528
     4a4:	e0bffe0d 	sth	r2,-8(fp)
	UsbWrite(HOST1_IRQ_EN_REG, intStat);
     4a8:	e0bffe0b 	ldhu	r2,-8(fp)
     4ac:	100b883a 	mov	r5,r2
     4b0:	01302314 	movui	r4,49292
     4b4:	00011b80 	call	11b8 <UsbWrite>
	// STEP 1a end

	// STEP 1b begin
	UsbWrite(COMM_R0,0x0000);//reset time
     4b8:	000b883a 	mov	r5,zero
     4bc:	01007104 	movi	r4,452
     4c0:	00011b80 	call	11b8 <UsbWrite>
	UsbWrite(COMM_R1,0x0000);  //port number
     4c4:	000b883a 	mov	r5,zero
     4c8:	01007184 	movi	r4,454
     4cc:	00011b80 	call	11b8 <UsbWrite>
	UsbWrite(COMM_R2,0x0000);  //r1
     4d0:	000b883a 	mov	r5,zero
     4d4:	01007204 	movi	r4,456
     4d8:	00011b80 	call	11b8 <UsbWrite>
	UsbWrite(COMM_R3,0x0000);  //r1
     4dc:	000b883a 	mov	r5,zero
     4e0:	01007284 	movi	r4,458
     4e4:	00011b80 	call	11b8 <UsbWrite>
	UsbWrite(COMM_R4,0x0000);  //r1
     4e8:	000b883a 	mov	r5,zero
     4ec:	01007304 	movi	r4,460
     4f0:	00011b80 	call	11b8 <UsbWrite>
	UsbWrite(COMM_R5,0x0000);  //r1
     4f4:	000b883a 	mov	r5,zero
     4f8:	01007384 	movi	r4,462
     4fc:	00011b80 	call	11b8 <UsbWrite>
	UsbWrite(COMM_R6,0x0000);  //r1
     500:	000b883a 	mov	r5,zero
     504:	01007404 	movi	r4,464
     508:	00011b80 	call	11b8 <UsbWrite>
	UsbWrite(COMM_R7,0x0000);  //r1
     50c:	000b883a 	mov	r5,zero
     510:	01007484 	movi	r4,466
     514:	00011b80 	call	11b8 <UsbWrite>
	UsbWrite(COMM_R8,0x0000);  //r1
     518:	000b883a 	mov	r5,zero
     51c:	01007504 	movi	r4,468
     520:	00011b80 	call	11b8 <UsbWrite>
	UsbWrite(COMM_R9,0x0000);  //r1
     524:	000b883a 	mov	r5,zero
     528:	01007584 	movi	r4,470
     52c:	00011b80 	call	11b8 <UsbWrite>
	UsbWrite(COMM_R10,0x0000);  //r1
     530:	000b883a 	mov	r5,zero
     534:	01007604 	movi	r4,472
     538:	00011b80 	call	11b8 <UsbWrite>
	UsbWrite(COMM_R11,0x0000);  //r1
     53c:	000b883a 	mov	r5,zero
     540:	01007684 	movi	r4,474
     544:	00011b80 	call	11b8 <UsbWrite>
	UsbWrite(COMM_R12,0x0000);  //r1
     548:	000b883a 	mov	r5,zero
     54c:	01007704 	movi	r4,476
     550:	00011b80 	call	11b8 <UsbWrite>
	UsbWrite(COMM_R13,0x0000);  //r1
     554:	000b883a 	mov	r5,zero
     558:	01007784 	movi	r4,478
     55c:	00011b80 	call	11b8 <UsbWrite>
	UsbWrite(COMM_INT_NUM,HUSB_SIE1_INIT_INT); //HUSB_SIE1_INIT_INT
     560:	01401c84 	movi	r5,114
     564:	01007084 	movi	r4,450
     568:	00011b80 	call	11b8 <UsbWrite>
	IO_write(HPI_MAILBOX,COMM_EXEC_INT);
     56c:	01738054 	movui	r5,52737
     570:	01000044 	movi	r4,1
     574:	000031c0 	call	31c <IO_write>

	while (!(IO_read(HPI_STATUS) & 0xFFFF) )  //read sie1 msg register
     578:	0001883a 	nop
     57c:	010000c4 	movi	r4,3
     580:	00003a40 	call	3a4 <IO_read>
     584:	10bfffcc 	andi	r2,r2,65535
     588:	103ffc26 	beq	r2,zero,57c <__alt_mem_onchip_memory2_0+0xf7fff4dc>
	{
	}
	while (IO_read(HPI_MAILBOX) != COMM_ACK)
     58c:	00000806 	br	5b0 <main+0x18c>
	{
		printf("[ERROR]:routine mailbox data is %x\n",IO_read(HPI_MAILBOX));
     590:	01000044 	movi	r4,1
     594:	00003a40 	call	3a4 <IO_read>
     598:	10bfffcc 	andi	r2,r2,65535
     59c:	100b883a 	mov	r5,r2
     5a0:	01000074 	movhi	r4,1
     5a4:	2106a904 	addi	r4,r4,6820
     5a8:	000235c0 	call	235c <printf>
		goto USB_HOT_PLUG;
     5ac:	003fac06 	br	460 <__alt_mem_onchip_memory2_0+0xf7fff3c0>
	IO_write(HPI_MAILBOX,COMM_EXEC_INT);

	while (!(IO_read(HPI_STATUS) & 0xFFFF) )  //read sie1 msg register
	{
	}
	while (IO_read(HPI_MAILBOX) != COMM_ACK)
     5b0:	01000044 	movi	r4,1
     5b4:	00003a40 	call	3a4 <IO_read>
     5b8:	10bfffcc 	andi	r2,r2,65535
     5bc:	1083fb58 	cmpnei	r2,r2,4077
     5c0:	103ff31e 	bne	r2,zero,590 <__alt_mem_onchip_memory2_0+0xf7fff4f0>
		printf("[ERROR]:routine mailbox data is %x\n",IO_read(HPI_MAILBOX));
		goto USB_HOT_PLUG;
	}
	// STEP 1b end

	printf("STEP 1 Complete");
     5c4:	01000074 	movhi	r4,1
     5c8:	2106b204 	addi	r4,r4,6856
     5cc:	000235c0 	call	235c <printf>
	// STEP 2 begin
	UsbWrite(COMM_INT_NUM,HUSB_RESET_INT); //husb reset
     5d0:	01401d04 	movi	r5,116
     5d4:	01007084 	movi	r4,450
     5d8:	00011b80 	call	11b8 <UsbWrite>
	UsbWrite(COMM_R0,0x003c);//reset time
     5dc:	01400f04 	movi	r5,60
     5e0:	01007104 	movi	r4,452
     5e4:	00011b80 	call	11b8 <UsbWrite>
	UsbWrite(COMM_R1,0x0000);  //port number
     5e8:	000b883a 	mov	r5,zero
     5ec:	01007184 	movi	r4,454
     5f0:	00011b80 	call	11b8 <UsbWrite>
	UsbWrite(COMM_R2,0x0000);  //r1
     5f4:	000b883a 	mov	r5,zero
     5f8:	01007204 	movi	r4,456
     5fc:	00011b80 	call	11b8 <UsbWrite>
	UsbWrite(COMM_R3,0x0000);  //r1
     600:	000b883a 	mov	r5,zero
     604:	01007284 	movi	r4,458
     608:	00011b80 	call	11b8 <UsbWrite>
	UsbWrite(COMM_R4,0x0000);  //r1
     60c:	000b883a 	mov	r5,zero
     610:	01007304 	movi	r4,460
     614:	00011b80 	call	11b8 <UsbWrite>
	UsbWrite(COMM_R5,0x0000);  //r1
     618:	000b883a 	mov	r5,zero
     61c:	01007384 	movi	r4,462
     620:	00011b80 	call	11b8 <UsbWrite>
	UsbWrite(COMM_R6,0x0000);  //r1
     624:	000b883a 	mov	r5,zero
     628:	01007404 	movi	r4,464
     62c:	00011b80 	call	11b8 <UsbWrite>
	UsbWrite(COMM_R7,0x0000);  //r1
     630:	000b883a 	mov	r5,zero
     634:	01007484 	movi	r4,466
     638:	00011b80 	call	11b8 <UsbWrite>
	UsbWrite(COMM_R8,0x0000);  //r1
     63c:	000b883a 	mov	r5,zero
     640:	01007504 	movi	r4,468
     644:	00011b80 	call	11b8 <UsbWrite>
	UsbWrite(COMM_R9,0x0000);  //r1
     648:	000b883a 	mov	r5,zero
     64c:	01007584 	movi	r4,470
     650:	00011b80 	call	11b8 <UsbWrite>
	UsbWrite(COMM_R10,0x0000);  //r1
     654:	000b883a 	mov	r5,zero
     658:	01007604 	movi	r4,472
     65c:	00011b80 	call	11b8 <UsbWrite>
	UsbWrite(COMM_R11,0x0000);  //r1
     660:	000b883a 	mov	r5,zero
     664:	01007684 	movi	r4,474
     668:	00011b80 	call	11b8 <UsbWrite>
	UsbWrite(COMM_R12,0x0000);  //r1
     66c:	000b883a 	mov	r5,zero
     670:	01007704 	movi	r4,476
     674:	00011b80 	call	11b8 <UsbWrite>
	UsbWrite(COMM_R13,0x0000);  //r1
     678:	000b883a 	mov	r5,zero
     67c:	01007784 	movi	r4,478
     680:	00011b80 	call	11b8 <UsbWrite>

	IO_write(HPI_MAILBOX,COMM_EXEC_INT);
     684:	01738054 	movui	r5,52737
     688:	01000044 	movi	r4,1
     68c:	000031c0 	call	31c <IO_write>

	while (IO_read(HPI_MAILBOX) != COMM_ACK)
     690:	0001883a 	nop
     694:	01000044 	movi	r4,1
     698:	00003a40 	call	3a4 <IO_read>
     69c:	10bfffcc 	andi	r2,r2,65535
     6a0:	1083fb58 	cmpnei	r2,r2,4077
     6a4:	10000826 	beq	r2,zero,6c8 <main+0x2a4>
	{
		printf("[ERROR]:routine mailbox data is %x\n",IO_read(HPI_MAILBOX));
     6a8:	01000044 	movi	r4,1
     6ac:	00003a40 	call	3a4 <IO_read>
     6b0:	10bfffcc 	andi	r2,r2,65535
     6b4:	100b883a 	mov	r5,r2
     6b8:	01000074 	movhi	r4,1
     6bc:	2106a904 	addi	r4,r4,6820
     6c0:	000235c0 	call	235c <printf>
		goto USB_HOT_PLUG;
     6c4:	003f6606 	br	460 <__alt_mem_onchip_memory2_0+0xf7fff3c0>
	}
	// STEP 2 end

	ctl_reg = USB1_CTL_REG;
     6c8:	00b02284 	movi	r2,-16246
     6cc:	d0a6cb0d 	sth	r2,-25812(gp)
	no_device = (A_DP_STAT | A_DM_STAT);
     6d0:	008c0004 	movi	r2,12288
     6d4:	d0a6cb8d 	sth	r2,-25810(gp)
	fs_device = A_DP_STAT;
     6d8:	00880004 	movi	r2,8192
     6dc:	e0bffa0d 	sth	r2,-24(fp)
	usb_ctl_val = UsbRead(ctl_reg);
     6e0:	d0a6cb0b 	ldhu	r2,-25812(gp)
     6e4:	10bfffcc 	andi	r2,r2,65535
     6e8:	1009883a 	mov	r4,r2
     6ec:	00012100 	call	1210 <UsbRead>
     6f0:	e0bff90d 	sth	r2,-28(fp)

	if (!(usb_ctl_val & no_device))
     6f4:	d0a6cb8b 	ldhu	r2,-25810(gp)
     6f8:	e0fff90b 	ldhu	r3,-28(fp)
     6fc:	1884703a 	and	r2,r3,r2
     700:	10bfffcc 	andi	r2,r2,65535
     704:	1000351e 	bne	r2,zero,7dc <main+0x3b8>
	{
		for(hot_plug_count = 0 ; hot_plug_count < 5 ; hot_plug_count++)
     708:	e03ff9c5 	stb	zero,-25(fp)
     70c:	00000f06 	br	74c <main+0x328>
		{
			usleep(5*1000);
     710:	0104e204 	movi	r4,5000
     714:	000fac40 	call	fac4 <usleep>
			usb_ctl_val = UsbRead(ctl_reg);
     718:	d0a6cb0b 	ldhu	r2,-25812(gp)
     71c:	10bfffcc 	andi	r2,r2,65535
     720:	1009883a 	mov	r4,r2
     724:	00012100 	call	1210 <UsbRead>
     728:	e0bff90d 	sth	r2,-28(fp)
			if(usb_ctl_val & no_device) break;
     72c:	d0a6cb8b 	ldhu	r2,-25810(gp)
     730:	e0fff90b 	ldhu	r3,-28(fp)
     734:	1884703a 	and	r2,r3,r2
     738:	10bfffcc 	andi	r2,r2,65535
     73c:	1000071e 	bne	r2,zero,75c <main+0x338>
	fs_device = A_DP_STAT;
	usb_ctl_val = UsbRead(ctl_reg);

	if (!(usb_ctl_val & no_device))
	{
		for(hot_plug_count = 0 ; hot_plug_count < 5 ; hot_plug_count++)
     740:	e0bff9c3 	ldbu	r2,-25(fp)
     744:	10800044 	addi	r2,r2,1
     748:	e0bff9c5 	stb	r2,-25(fp)
     74c:	e0bff9c3 	ldbu	r2,-25(fp)
     750:	10800170 	cmpltui	r2,r2,5
     754:	103fee1e 	bne	r2,zero,710 <__alt_mem_onchip_memory2_0+0xf7fff670>
     758:	00000106 	br	760 <main+0x33c>
		{
			usleep(5*1000);
			usb_ctl_val = UsbRead(ctl_reg);
			if(usb_ctl_val & no_device) break;
     75c:	0001883a 	nop
		}
		if(!(usb_ctl_val & no_device))
     760:	d0a6cb8b 	ldhu	r2,-25810(gp)
     764:	e0fff90b 	ldhu	r3,-28(fp)
     768:	1884703a 	and	r2,r3,r2
     76c:	10bfffcc 	andi	r2,r2,65535
     770:	1000261e 	bne	r2,zero,80c <main+0x3e8>
		{
			printf("\n[INFO]: no device is present in SIE1!\n");
     774:	01000074 	movhi	r4,1
     778:	2106b604 	addi	r4,r4,6872
     77c:	00024580 	call	2458 <puts>
			printf("[INFO]: please insert a USB keyboard in SIE1!\n");
     780:	01000074 	movhi	r4,1
     784:	2106c004 	addi	r4,r4,6912
     788:	00024580 	call	2458 <puts>
			while (!(usb_ctl_val & no_device))
     78c:	00000d06 	br	7c4 <main+0x3a0>
			{
				usb_ctl_val = UsbRead(ctl_reg);
     790:	d0a6cb0b 	ldhu	r2,-25812(gp)
     794:	10bfffcc 	andi	r2,r2,65535
     798:	1009883a 	mov	r4,r2
     79c:	00012100 	call	1210 <UsbRead>
     7a0:	e0bff90d 	sth	r2,-28(fp)
				if(usb_ctl_val & no_device)
     7a4:	d0a6cb8b 	ldhu	r2,-25810(gp)
     7a8:	e0fff90b 	ldhu	r3,-28(fp)
     7ac:	1884703a 	and	r2,r3,r2
     7b0:	10bfffcc 	andi	r2,r2,65535
     7b4:	10000126 	beq	r2,zero,7bc <main+0x398>
					goto USB_HOT_PLUG;
     7b8:	003f2906 	br	460 <__alt_mem_onchip_memory2_0+0xf7fff3c0>

				usleep(2000);
     7bc:	0101f404 	movi	r4,2000
     7c0:	000fac40 	call	fac4 <usleep>
		}
		if(!(usb_ctl_val & no_device))
		{
			printf("\n[INFO]: no device is present in SIE1!\n");
			printf("[INFO]: please insert a USB keyboard in SIE1!\n");
			while (!(usb_ctl_val & no_device))
     7c4:	d0a6cb8b 	ldhu	r2,-25810(gp)
     7c8:	e0fff90b 	ldhu	r3,-28(fp)
     7cc:	1884703a 	and	r2,r3,r2
     7d0:	10bfffcc 	andi	r2,r2,65535
     7d4:	103fee26 	beq	r2,zero,790 <__alt_mem_onchip_memory2_0+0xf7fff6f0>
     7d8:	00000c06 	br	80c <main+0x3e8>
		}
	}
	else
	{
		/* check for low speed or full speed by reading D+ and D- lines */
		if (usb_ctl_val & fs_device)
     7dc:	e0fff90b 	ldhu	r3,-28(fp)
     7e0:	e0bffa0b 	ldhu	r2,-24(fp)
     7e4:	1884703a 	and	r2,r3,r2
     7e8:	10bfffcc 	andi	r2,r2,65535
     7ec:	10000426 	beq	r2,zero,800 <main+0x3dc>
		{
			printf("[INFO]: full speed device\n");
     7f0:	01000074 	movhi	r4,1
     7f4:	2106cc04 	addi	r4,r4,6960
     7f8:	00024580 	call	2458 <puts>
     7fc:	00000306 	br	80c <main+0x3e8>
		}
		else
		{
			printf("[INFO]: low speed device\n");
     800:	01000074 	movhi	r4,1
     804:	2106d304 	addi	r4,r4,6988
     808:	00024580 	call	2458 <puts>



	// STEP 3 begin
	//------------------------------------------------------set address -----------------------------------------------------------------
	UsbSetAddress();
     80c:	00013080 	call	1308 <UsbSetAddress>

	while (!(IO_read(HPI_STATUS) & HPI_STATUS_SIE1msg_FLAG) )  //read sie1 msg register
     810:	00000306 	br	820 <main+0x3fc>
	{
		UsbSetAddress();
     814:	00013080 	call	1308 <UsbSetAddress>
		usleep(10*1000);
     818:	0109c404 	movi	r4,10000
     81c:	000fac40 	call	fac4 <usleep>

	// STEP 3 begin
	//------------------------------------------------------set address -----------------------------------------------------------------
	UsbSetAddress();

	while (!(IO_read(HPI_STATUS) & HPI_STATUS_SIE1msg_FLAG) )  //read sie1 msg register
     820:	010000c4 	movi	r4,3
     824:	00003a40 	call	3a4 <IO_read>
     828:	10bfffcc 	andi	r2,r2,65535
     82c:	1080040c 	andi	r2,r2,16
     830:	103ff826 	beq	r2,zero,814 <__alt_mem_onchip_memory2_0+0xf7fff774>
	{
		UsbSetAddress();
		usleep(10*1000);
	}

	UsbWaitTDListDone();
     834:	00021a80 	call	21a8 <UsbWaitTDListDone>

	IO_write(HPI_ADDR,0x0506); // i
     838:	01414184 	movi	r5,1286
     83c:	01000084 	movi	r4,2
     840:	000031c0 	call	31c <IO_write>
	printf("[ENUM PROCESS]:step 3 TD Status Byte is %x\n",IO_read(HPI_DATA));
     844:	0009883a 	mov	r4,zero
     848:	00003a40 	call	3a4 <IO_read>
     84c:	10bfffcc 	andi	r2,r2,65535
     850:	100b883a 	mov	r5,r2
     854:	01000074 	movhi	r4,1
     858:	2106da04 	addi	r4,r4,7016
     85c:	000235c0 	call	235c <printf>

	IO_write(HPI_ADDR,0x0508); // n
     860:	01414204 	movi	r5,1288
     864:	01000084 	movi	r4,2
     868:	000031c0 	call	31c <IO_write>
	usb_ctl_val = IO_read(HPI_DATA);
     86c:	0009883a 	mov	r4,zero
     870:	00003a40 	call	3a4 <IO_read>
     874:	e0bff90d 	sth	r2,-28(fp)
	printf("[ENUM PROCESS]:step 3 TD Control Byte is %x\n",usb_ctl_val);
     878:	e0bff90b 	ldhu	r2,-28(fp)
     87c:	100b883a 	mov	r5,r2
     880:	01000074 	movhi	r4,1
     884:	2106e504 	addi	r4,r4,7060
     888:	000235c0 	call	235c <printf>
	while (usb_ctl_val != 0x03) // retries occurred
     88c:	e0bff90b 	ldhu	r2,-28(fp)
     890:	108000e0 	cmpeqi	r2,r2,3
     894:	1000031e 	bne	r2,zero,8a4 <main+0x480>
	{
		usb_ctl_val = UsbGetRetryCnt();
     898:	000222c0 	call	222c <UsbGetRetryCnt>
     89c:	e0bff90d 	sth	r2,-28(fp)

		goto USB_HOT_PLUG;
     8a0:	003eef06 	br	460 <__alt_mem_onchip_memory2_0+0xf7fff3c0>
	}

	printf("------------[ENUM PROCESS]:set address done!---------------\n");
     8a4:	01000074 	movhi	r4,1
     8a8:	2106f104 	addi	r4,r4,7108
     8ac:	00024580 	call	2458 <puts>

	// STEP 4 begin
	//-------------------------------get device descriptor-1 -----------------------------------//
	// TASK: Call the appropriate function for this step.
	UsbGetDeviceDesc1(); 	// Get Device Descriptor -1
     8b0:	00014080 	call	1408 <UsbGetDeviceDesc1>

	//usleep(10*1000);
	while (!(IO_read(HPI_STATUS) & HPI_STATUS_SIE1msg_FLAG) )  //read sie1 msg register
     8b4:	00000306 	br	8c4 <main+0x4a0>
	{
		// TASK: Call the appropriate function again if it wasn't processed successfully.
		UsbGetDeviceDesc1();
     8b8:	00014080 	call	1408 <UsbGetDeviceDesc1>
		usleep(10*1000);
     8bc:	0109c404 	movi	r4,10000
     8c0:	000fac40 	call	fac4 <usleep>
	//-------------------------------get device descriptor-1 -----------------------------------//
	// TASK: Call the appropriate function for this step.
	UsbGetDeviceDesc1(); 	// Get Device Descriptor -1

	//usleep(10*1000);
	while (!(IO_read(HPI_STATUS) & HPI_STATUS_SIE1msg_FLAG) )  //read sie1 msg register
     8c4:	010000c4 	movi	r4,3
     8c8:	00003a40 	call	3a4 <IO_read>
     8cc:	10bfffcc 	andi	r2,r2,65535
     8d0:	1080040c 	andi	r2,r2,16
     8d4:	103ff826 	beq	r2,zero,8b8 <__alt_mem_onchip_memory2_0+0xf7fff818>
		// TASK: Call the appropriate function again if it wasn't processed successfully.
		UsbGetDeviceDesc1();
		usleep(10*1000);
	}

	UsbWaitTDListDone();
     8d8:	00021a80 	call	21a8 <UsbWaitTDListDone>

	IO_write(HPI_ADDR,0x0506);
     8dc:	01414184 	movi	r5,1286
     8e0:	01000084 	movi	r4,2
     8e4:	000031c0 	call	31c <IO_write>
	printf("[ENUM PROCESS]:step 4 TD Status Byte is %x\n",IO_read(HPI_DATA));
     8e8:	0009883a 	mov	r4,zero
     8ec:	00003a40 	call	3a4 <IO_read>
     8f0:	10bfffcc 	andi	r2,r2,65535
     8f4:	100b883a 	mov	r5,r2
     8f8:	01000074 	movhi	r4,1
     8fc:	21070004 	addi	r4,r4,7168
     900:	000235c0 	call	235c <printf>

	IO_write(HPI_ADDR,0x0508);
     904:	01414204 	movi	r5,1288
     908:	01000084 	movi	r4,2
     90c:	000031c0 	call	31c <IO_write>
	usb_ctl_val = IO_read(HPI_DATA);
     910:	0009883a 	mov	r4,zero
     914:	00003a40 	call	3a4 <IO_read>
     918:	e0bff90d 	sth	r2,-28(fp)
	printf("[ENUM PROCESS]:step 4 TD Control Byte is %x\n",usb_ctl_val);
     91c:	e0bff90b 	ldhu	r2,-28(fp)
     920:	100b883a 	mov	r5,r2
     924:	01000074 	movhi	r4,1
     928:	21070b04 	addi	r4,r4,7212
     92c:	000235c0 	call	235c <printf>
	while (usb_ctl_val != 0x03)
     930:	00000206 	br	93c <main+0x518>
	{
		usb_ctl_val = UsbGetRetryCnt();
     934:	000222c0 	call	222c <UsbGetRetryCnt>
     938:	e0bff90d 	sth	r2,-28(fp)
	printf("[ENUM PROCESS]:step 4 TD Status Byte is %x\n",IO_read(HPI_DATA));

	IO_write(HPI_ADDR,0x0508);
	usb_ctl_val = IO_read(HPI_DATA);
	printf("[ENUM PROCESS]:step 4 TD Control Byte is %x\n",usb_ctl_val);
	while (usb_ctl_val != 0x03)
     93c:	e0bff90b 	ldhu	r2,-28(fp)
     940:	108000d8 	cmpnei	r2,r2,3
     944:	103ffb1e 	bne	r2,zero,934 <__alt_mem_onchip_memory2_0+0xf7fff894>
	{
		usb_ctl_val = UsbGetRetryCnt();
	}

	printf("---------------[ENUM PROCESS]:get device descriptor-1 done!-----------------\n");
     948:	01000074 	movhi	r4,1
     94c:	21071704 	addi	r4,r4,7260
     950:	00024580 	call	2458 <puts>


	//--------------------------------get device descriptor-2---------------------------------------------//
	//get device descriptor
	// TASK: Call the appropriate function for this step.
	UsbGetDeviceDesc2(); 	// Get Device Descriptor -2
     954:	00015500 	call	1550 <UsbGetDeviceDesc2>

	//if no message
	while (!(IO_read(HPI_STATUS) & HPI_STATUS_SIE1msg_FLAG) )  //read sie1 msg register
     958:	00000306 	br	968 <main+0x544>
	{
		//resend the get device descriptor
		//get device descriptor
		// TASK: Call the appropriate function again if it wasn't processed successfully.
		UsbGetDeviceDesc2();
     95c:	00015500 	call	1550 <UsbGetDeviceDesc2>
		usleep(10*1000);
     960:	0109c404 	movi	r4,10000
     964:	000fac40 	call	fac4 <usleep>
	//get device descriptor
	// TASK: Call the appropriate function for this step.
	UsbGetDeviceDesc2(); 	// Get Device Descriptor -2

	//if no message
	while (!(IO_read(HPI_STATUS) & HPI_STATUS_SIE1msg_FLAG) )  //read sie1 msg register
     968:	010000c4 	movi	r4,3
     96c:	00003a40 	call	3a4 <IO_read>
     970:	10bfffcc 	andi	r2,r2,65535
     974:	1080040c 	andi	r2,r2,16
     978:	103ff826 	beq	r2,zero,95c <__alt_mem_onchip_memory2_0+0xf7fff8bc>
		// TASK: Call the appropriate function again if it wasn't processed successfully.
		UsbGetDeviceDesc2();
		usleep(10*1000);
	}

	UsbWaitTDListDone();
     97c:	00021a80 	call	21a8 <UsbWaitTDListDone>

	IO_write(HPI_ADDR,0x0506);
     980:	01414184 	movi	r5,1286
     984:	01000084 	movi	r4,2
     988:	000031c0 	call	31c <IO_write>
	printf("[ENUM PROCESS]:step 4 TD Status Byte is %x\n",IO_read(HPI_DATA));
     98c:	0009883a 	mov	r4,zero
     990:	00003a40 	call	3a4 <IO_read>
     994:	10bfffcc 	andi	r2,r2,65535
     998:	100b883a 	mov	r5,r2
     99c:	01000074 	movhi	r4,1
     9a0:	21070004 	addi	r4,r4,7168
     9a4:	000235c0 	call	235c <printf>

	IO_write(HPI_ADDR,0x0508);
     9a8:	01414204 	movi	r5,1288
     9ac:	01000084 	movi	r4,2
     9b0:	000031c0 	call	31c <IO_write>
	usb_ctl_val = IO_read(HPI_DATA);
     9b4:	0009883a 	mov	r4,zero
     9b8:	00003a40 	call	3a4 <IO_read>
     9bc:	e0bff90d 	sth	r2,-28(fp)
	printf("[ENUM PROCESS]:step 4 TD Control Byte is %x\n",usb_ctl_val);
     9c0:	e0bff90b 	ldhu	r2,-28(fp)
     9c4:	100b883a 	mov	r5,r2
     9c8:	01000074 	movhi	r4,1
     9cc:	21070b04 	addi	r4,r4,7212
     9d0:	000235c0 	call	235c <printf>
	while (usb_ctl_val != 0x03)
     9d4:	00000206 	br	9e0 <main+0x5bc>
	{
		usb_ctl_val = UsbGetRetryCnt();
     9d8:	000222c0 	call	222c <UsbGetRetryCnt>
     9dc:	e0bff90d 	sth	r2,-28(fp)
	printf("[ENUM PROCESS]:step 4 TD Status Byte is %x\n",IO_read(HPI_DATA));

	IO_write(HPI_ADDR,0x0508);
	usb_ctl_val = IO_read(HPI_DATA);
	printf("[ENUM PROCESS]:step 4 TD Control Byte is %x\n",usb_ctl_val);
	while (usb_ctl_val != 0x03)
     9e0:	e0bff90b 	ldhu	r2,-28(fp)
     9e4:	108000d8 	cmpnei	r2,r2,3
     9e8:	103ffb1e 	bne	r2,zero,9d8 <__alt_mem_onchip_memory2_0+0xf7fff938>
	{
		usb_ctl_val = UsbGetRetryCnt();
	}

	printf("------------[ENUM PROCESS]:get device descriptor-2 done!--------------\n");
     9ec:	01000074 	movhi	r4,1
     9f0:	21072b04 	addi	r4,r4,7340
     9f4:	00024580 	call	2458 <puts>


	// STEP 5 begin
	//-----------------------------------get configuration descriptor -1 ----------------------------------//
	// TASK: Call the appropriate function for this step.
	UsbGetConfigDesc1(); 	// Get Configuration Descriptor -1
     9f8:	00017280 	call	1728 <UsbGetConfigDesc1>

	//if no message
	while (!(IO_read(HPI_STATUS) & HPI_STATUS_SIE1msg_FLAG) )  //read sie1 msg register
     9fc:	00000306 	br	a0c <main+0x5e8>
	{
		//resend the get device descriptor
		//get device descriptor

		// TASK: Call the appropriate function again if it wasn't processed successfully.
		UsbGetConfigDesc1();
     a00:	00017280 	call	1728 <UsbGetConfigDesc1>
		usleep(10*1000);
     a04:	0109c404 	movi	r4,10000
     a08:	000fac40 	call	fac4 <usleep>
	//-----------------------------------get configuration descriptor -1 ----------------------------------//
	// TASK: Call the appropriate function for this step.
	UsbGetConfigDesc1(); 	// Get Configuration Descriptor -1

	//if no message
	while (!(IO_read(HPI_STATUS) & HPI_STATUS_SIE1msg_FLAG) )  //read sie1 msg register
     a0c:	010000c4 	movi	r4,3
     a10:	00003a40 	call	3a4 <IO_read>
     a14:	10bfffcc 	andi	r2,r2,65535
     a18:	1080040c 	andi	r2,r2,16
     a1c:	103ff826 	beq	r2,zero,a00 <__alt_mem_onchip_memory2_0+0xf7fff960>
		// TASK: Call the appropriate function again if it wasn't processed successfully.
		UsbGetConfigDesc1();
		usleep(10*1000);
	}

	UsbWaitTDListDone();
     a20:	00021a80 	call	21a8 <UsbWaitTDListDone>

	IO_write(HPI_ADDR,0x0506);
     a24:	01414184 	movi	r5,1286
     a28:	01000084 	movi	r4,2
     a2c:	000031c0 	call	31c <IO_write>
	printf("[ENUM PROCESS]:step 5 TD Status Byte is %x\n",IO_read(HPI_DATA));
     a30:	0009883a 	mov	r4,zero
     a34:	00003a40 	call	3a4 <IO_read>
     a38:	10bfffcc 	andi	r2,r2,65535
     a3c:	100b883a 	mov	r5,r2
     a40:	01000074 	movhi	r4,1
     a44:	21073d04 	addi	r4,r4,7412
     a48:	000235c0 	call	235c <printf>

	IO_write(HPI_ADDR,0x0508);
     a4c:	01414204 	movi	r5,1288
     a50:	01000084 	movi	r4,2
     a54:	000031c0 	call	31c <IO_write>
	usb_ctl_val = IO_read(HPI_DATA);
     a58:	0009883a 	mov	r4,zero
     a5c:	00003a40 	call	3a4 <IO_read>
     a60:	e0bff90d 	sth	r2,-28(fp)
	printf("[ENUM PROCESS]:step 5 TD Control Byte is %x\n",usb_ctl_val);
     a64:	e0bff90b 	ldhu	r2,-28(fp)
     a68:	100b883a 	mov	r5,r2
     a6c:	01000074 	movhi	r4,1
     a70:	21074804 	addi	r4,r4,7456
     a74:	000235c0 	call	235c <printf>
	while (usb_ctl_val != 0x03)
     a78:	00000206 	br	a84 <main+0x660>
	{
		usb_ctl_val = UsbGetRetryCnt();
     a7c:	000222c0 	call	222c <UsbGetRetryCnt>
     a80:	e0bff90d 	sth	r2,-28(fp)
	printf("[ENUM PROCESS]:step 5 TD Status Byte is %x\n",IO_read(HPI_DATA));

	IO_write(HPI_ADDR,0x0508);
	usb_ctl_val = IO_read(HPI_DATA);
	printf("[ENUM PROCESS]:step 5 TD Control Byte is %x\n",usb_ctl_val);
	while (usb_ctl_val != 0x03)
     a84:	e0bff90b 	ldhu	r2,-28(fp)
     a88:	108000d8 	cmpnei	r2,r2,3
     a8c:	103ffb1e 	bne	r2,zero,a7c <__alt_mem_onchip_memory2_0+0xf7fff9dc>
	{
		usb_ctl_val = UsbGetRetryCnt();
	}
	printf("------------[ENUM PROCESS]:get configuration descriptor-1 pass------------\n");
     a90:	01000074 	movhi	r4,1
     a94:	21075404 	addi	r4,r4,7504
     a98:	00024580 	call	2458 <puts>

	// STEP 6 begin
	//-----------------------------------get configuration descriptor-2------------------------------------//
	//get device descriptor
	// TASK: Call the appropriate function for this step.
	UsbGetConfigDesc2(); 	// Get Configuration Descriptor -2
     a9c:	00018b80 	call	18b8 <UsbGetConfigDesc2>

	usleep(100*1000);
     aa0:	010000b4 	movhi	r4,2
     aa4:	2121a804 	addi	r4,r4,-31072
     aa8:	000fac40 	call	fac4 <usleep>
	//if no message
	while (!(IO_read(HPI_STATUS) & HPI_STATUS_SIE1msg_FLAG) )  //read sie1 msg register
     aac:	00000306 	br	abc <main+0x698>
	{
		// TASK: Call the appropriate function again if it wasn't processed successfully.
		UsbGetConfigDesc2();
     ab0:	00018b80 	call	18b8 <UsbGetConfigDesc2>
		usleep(10*1000);
     ab4:	0109c404 	movi	r4,10000
     ab8:	000fac40 	call	fac4 <usleep>
	// TASK: Call the appropriate function for this step.
	UsbGetConfigDesc2(); 	// Get Configuration Descriptor -2

	usleep(100*1000);
	//if no message
	while (!(IO_read(HPI_STATUS) & HPI_STATUS_SIE1msg_FLAG) )  //read sie1 msg register
     abc:	010000c4 	movi	r4,3
     ac0:	00003a40 	call	3a4 <IO_read>
     ac4:	10bfffcc 	andi	r2,r2,65535
     ac8:	1080040c 	andi	r2,r2,16
     acc:	103ff826 	beq	r2,zero,ab0 <__alt_mem_onchip_memory2_0+0xf7fffa10>
		// TASK: Call the appropriate function again if it wasn't processed successfully.
		UsbGetConfigDesc2();
		usleep(10*1000);
	}

	UsbWaitTDListDone();
     ad0:	00021a80 	call	21a8 <UsbWaitTDListDone>

	IO_write(HPI_ADDR,0x0506);
     ad4:	01414184 	movi	r5,1286
     ad8:	01000084 	movi	r4,2
     adc:	000031c0 	call	31c <IO_write>
	printf("[ENUM PROCESS]:step 6 TD Status Byte is %x\n",IO_read(HPI_DATA));
     ae0:	0009883a 	mov	r4,zero
     ae4:	00003a40 	call	3a4 <IO_read>
     ae8:	10bfffcc 	andi	r2,r2,65535
     aec:	100b883a 	mov	r5,r2
     af0:	01000074 	movhi	r4,1
     af4:	21076704 	addi	r4,r4,7580
     af8:	000235c0 	call	235c <printf>

	IO_write(HPI_ADDR,0x0508);
     afc:	01414204 	movi	r5,1288
     b00:	01000084 	movi	r4,2
     b04:	000031c0 	call	31c <IO_write>
	usb_ctl_val = IO_read(HPI_DATA);
     b08:	0009883a 	mov	r4,zero
     b0c:	00003a40 	call	3a4 <IO_read>
     b10:	e0bff90d 	sth	r2,-28(fp)
	printf("[ENUM PROCESS]:step 6 TD Control Byte is %x\n",usb_ctl_val);
     b14:	e0bff90b 	ldhu	r2,-28(fp)
     b18:	100b883a 	mov	r5,r2
     b1c:	01000074 	movhi	r4,1
     b20:	21077204 	addi	r4,r4,7624
     b24:	000235c0 	call	235c <printf>
	while (usb_ctl_val != 0x03)
     b28:	00000206 	br	b34 <main+0x710>
	{
		usb_ctl_val = UsbGetRetryCnt();
     b2c:	000222c0 	call	222c <UsbGetRetryCnt>
     b30:	e0bff90d 	sth	r2,-28(fp)
	printf("[ENUM PROCESS]:step 6 TD Status Byte is %x\n",IO_read(HPI_DATA));

	IO_write(HPI_ADDR,0x0508);
	usb_ctl_val = IO_read(HPI_DATA);
	printf("[ENUM PROCESS]:step 6 TD Control Byte is %x\n",usb_ctl_val);
	while (usb_ctl_val != 0x03)
     b34:	e0bff90b 	ldhu	r2,-28(fp)
     b38:	108000d8 	cmpnei	r2,r2,3
     b3c:	103ffb1e 	bne	r2,zero,b2c <__alt_mem_onchip_memory2_0+0xf7fffa8c>
	{
		usb_ctl_val = UsbGetRetryCnt();
	}


	printf("-----------[ENUM PROCESS]:get configuration descriptor-2 done!------------\n");
     b40:	01000074 	movhi	r4,1
     b44:	21077e04 	addi	r4,r4,7672
     b48:	00024580 	call	2458 <puts>


	// ---------------------------------get device info---------------------------------------------//

	// TASK: Write the address to read from the memory for byte 7 of the interface descriptor to HPI_ADDR.
	IO_write(HPI_ADDR,0x056c);
     b4c:	01415b04 	movi	r5,1388
     b50:	01000084 	movi	r4,2
     b54:	000031c0 	call	31c <IO_write>
	code = IO_read(HPI_DATA);
     b58:	0009883a 	mov	r4,zero
     b5c:	00003a40 	call	3a4 <IO_read>
     b60:	e0bffe8d 	sth	r2,-6(fp)
	code = code & 0x003;
     b64:	e0bffe8b 	ldhu	r2,-6(fp)
     b68:	108000cc 	andi	r2,r2,3
     b6c:	e0bffe8d 	sth	r2,-6(fp)
	printf("\ncode = %x\n", code);
     b70:	e0bffe8b 	ldhu	r2,-6(fp)
     b74:	100b883a 	mov	r5,r2
     b78:	01000074 	movhi	r4,1
     b7c:	21079104 	addi	r4,r4,7748
     b80:	000235c0 	call	235c <printf>

	if (code == 0x01)
     b84:	e0bffe8b 	ldhu	r2,-6(fp)
     b88:	10800058 	cmpnei	r2,r2,1
     b8c:	1000041e 	bne	r2,zero,ba0 <main+0x77c>
	{
		printf("\n[INFO]:check TD rec data7 \n[INFO]:Keyboard Detected!!!\n\n");
     b90:	01000074 	movhi	r4,1
     b94:	21079404 	addi	r4,r4,7760
     b98:	00024580 	call	2458 <puts>
     b9c:	00000306 	br	bac <main+0x788>
	}
	else
	{
		printf("\n[INFO]:Keyboard Not Detected!!! \n\n");
     ba0:	01000074 	movhi	r4,1
     ba4:	2107a304 	addi	r4,r4,7820
     ba8:	00024580 	call	2458 <puts>
	}

	// TASK: Write the address to read from the memory for the endpoint descriptor to HPI_ADDR.

	IO_write(HPI_ADDR,0x0576);
     bac:	01415d84 	movi	r5,1398
     bb0:	01000084 	movi	r4,2
     bb4:	000031c0 	call	31c <IO_write>
	IO_write(HPI_DATA,0x073F);
     bb8:	0141cfc4 	movi	r5,1855
     bbc:	0009883a 	mov	r4,zero
     bc0:	000031c0 	call	31c <IO_write>
	IO_write(HPI_DATA,0x8105);
     bc4:	01604154 	movui	r5,33029
     bc8:	0009883a 	mov	r4,zero
     bcc:	000031c0 	call	31c <IO_write>
	IO_write(HPI_DATA,0x0003);
     bd0:	014000c4 	movi	r5,3
     bd4:	0009883a 	mov	r4,zero
     bd8:	000031c0 	call	31c <IO_write>
	IO_write(HPI_DATA,0x0008);
     bdc:	01400204 	movi	r5,8
     be0:	0009883a 	mov	r4,zero
     be4:	000031c0 	call	31c <IO_write>
	IO_write(HPI_DATA,0xAC0A);
     be8:	016b0294 	movui	r5,44042
     bec:	0009883a 	mov	r4,zero
     bf0:	000031c0 	call	31c <IO_write>
	UsbWrite(HUSB_SIE1_pCurrentTDPtr,0x0576); //HUSB_SIE1_pCurrentTDPtr
     bf4:	01415d84 	movi	r5,1398
     bf8:	01006c04 	movi	r4,432
     bfc:	00011b80 	call	11b8 <UsbWrite>

	//data_size = (IO_read(HPI_DATA)>>8)&0x0ff;
	//data_size = 0x08;//(IO_read(HPI_DATA))&0x0ff;
	//UsbPrintMem();
	IO_write(HPI_ADDR,0x057c);
     c00:	01415f04 	movi	r5,1404
     c04:	01000084 	movi	r4,2
     c08:	000031c0 	call	31c <IO_write>
	data_size = (IO_read(HPI_DATA))&0x0ff;
     c0c:	0009883a 	mov	r4,zero
     c10:	00003a40 	call	3a4 <IO_read>
     c14:	e0bfff05 	stb	r2,-4(fp)
	printf("[ENUM PROCESS]:data packet size is %d\n",data_size);
     c18:	e0bfff03 	ldbu	r2,-4(fp)
     c1c:	100b883a 	mov	r5,r2
     c20:	01000074 	movhi	r4,1
     c24:	2107ac04 	addi	r4,r4,7856
     c28:	000235c0 	call	235c <printf>
	// STEP 7 begin
	//------------------------------------set configuration -----------------------------------------//
	// TASK: Call the appropriate function for this step.
	UsbSetConfig();		// Set Configuration
     c2c:	0001b200 	call	1b20 <UsbSetConfig>

	while (!(IO_read(HPI_STATUS) & HPI_STATUS_SIE1msg_FLAG) )  //read sie1 msg register
     c30:	00000306 	br	c40 <main+0x81c>
	{
		// TASK: Call the appropriate function again if it wasn't processed successfully.
		UsbSetConfig();		// Set Configuration
     c34:	0001b200 	call	1b20 <UsbSetConfig>
		usleep(10*1000);
     c38:	0109c404 	movi	r4,10000
     c3c:	000fac40 	call	fac4 <usleep>
	// STEP 7 begin
	//------------------------------------set configuration -----------------------------------------//
	// TASK: Call the appropriate function for this step.
	UsbSetConfig();		// Set Configuration

	while (!(IO_read(HPI_STATUS) & HPI_STATUS_SIE1msg_FLAG) )  //read sie1 msg register
     c40:	010000c4 	movi	r4,3
     c44:	00003a40 	call	3a4 <IO_read>
     c48:	10bfffcc 	andi	r2,r2,65535
     c4c:	1080040c 	andi	r2,r2,16
     c50:	103ff826 	beq	r2,zero,c34 <__alt_mem_onchip_memory2_0+0xf7fffb94>
		// TASK: Call the appropriate function again if it wasn't processed successfully.
		UsbSetConfig();		// Set Configuration
		usleep(10*1000);
	}

	UsbWaitTDListDone();
     c54:	00021a80 	call	21a8 <UsbWaitTDListDone>

	IO_write(HPI_ADDR,0x0506);
     c58:	01414184 	movi	r5,1286
     c5c:	01000084 	movi	r4,2
     c60:	000031c0 	call	31c <IO_write>
	printf("[ENUM PROCESS]:step 7 TD Status Byte is %x\n",IO_read(HPI_DATA));
     c64:	0009883a 	mov	r4,zero
     c68:	00003a40 	call	3a4 <IO_read>
     c6c:	10bfffcc 	andi	r2,r2,65535
     c70:	100b883a 	mov	r5,r2
     c74:	01000074 	movhi	r4,1
     c78:	2107b604 	addi	r4,r4,7896
     c7c:	000235c0 	call	235c <printf>

	IO_write(HPI_ADDR,0x0508);
     c80:	01414204 	movi	r5,1288
     c84:	01000084 	movi	r4,2
     c88:	000031c0 	call	31c <IO_write>
	usb_ctl_val = IO_read(HPI_DATA);
     c8c:	0009883a 	mov	r4,zero
     c90:	00003a40 	call	3a4 <IO_read>
     c94:	e0bff90d 	sth	r2,-28(fp)
	printf("[ENUM PROCESS]:step 7 TD Control Byte is %x\n",usb_ctl_val);
     c98:	e0bff90b 	ldhu	r2,-28(fp)
     c9c:	100b883a 	mov	r5,r2
     ca0:	01000074 	movhi	r4,1
     ca4:	2107c104 	addi	r4,r4,7940
     ca8:	000235c0 	call	235c <printf>
	while (usb_ctl_val != 0x03)
     cac:	00000206 	br	cb8 <main+0x894>
	{
		usb_ctl_val = UsbGetRetryCnt();
     cb0:	000222c0 	call	222c <UsbGetRetryCnt>
     cb4:	e0bff90d 	sth	r2,-28(fp)
	printf("[ENUM PROCESS]:step 7 TD Status Byte is %x\n",IO_read(HPI_DATA));

	IO_write(HPI_ADDR,0x0508);
	usb_ctl_val = IO_read(HPI_DATA);
	printf("[ENUM PROCESS]:step 7 TD Control Byte is %x\n",usb_ctl_val);
	while (usb_ctl_val != 0x03)
     cb8:	e0bff90b 	ldhu	r2,-28(fp)
     cbc:	108000d8 	cmpnei	r2,r2,3
     cc0:	103ffb1e 	bne	r2,zero,cb0 <__alt_mem_onchip_memory2_0+0xf7fffc10>
	{
		usb_ctl_val = UsbGetRetryCnt();
	}

	printf("------------[ENUM PROCESS]:set configuration done!-------------------\n");
     cc4:	01000074 	movhi	r4,1
     cc8:	2107cd04 	addi	r4,r4,7988
     ccc:	00024580 	call	2458 <puts>

	//----------------------------------------------class request out ------------------------------------------//
	// TASK: Call the appropriate function for this step.
	UsbClassRequest();
     cd0:	0001c200 	call	1c20 <UsbClassRequest>

	while (!(IO_read(HPI_STATUS) & HPI_STATUS_SIE1msg_FLAG) )  //read sie1 msg register
     cd4:	00000306 	br	ce4 <main+0x8c0>
	{
		// TASK: Call the appropriate function again if it wasn't processed successfully.
		UsbClassRequest();
     cd8:	0001c200 	call	1c20 <UsbClassRequest>
		usleep(10*1000);
     cdc:	0109c404 	movi	r4,10000
     ce0:	000fac40 	call	fac4 <usleep>

	//----------------------------------------------class request out ------------------------------------------//
	// TASK: Call the appropriate function for this step.
	UsbClassRequest();

	while (!(IO_read(HPI_STATUS) & HPI_STATUS_SIE1msg_FLAG) )  //read sie1 msg register
     ce4:	010000c4 	movi	r4,3
     ce8:	00003a40 	call	3a4 <IO_read>
     cec:	10bfffcc 	andi	r2,r2,65535
     cf0:	1080040c 	andi	r2,r2,16
     cf4:	103ff826 	beq	r2,zero,cd8 <__alt_mem_onchip_memory2_0+0xf7fffc38>
		// TASK: Call the appropriate function again if it wasn't processed successfully.
		UsbClassRequest();
		usleep(10*1000);
	}

	UsbWaitTDListDone();
     cf8:	00021a80 	call	21a8 <UsbWaitTDListDone>

	IO_write(HPI_ADDR,0x0506);
     cfc:	01414184 	movi	r5,1286
     d00:	01000084 	movi	r4,2
     d04:	000031c0 	call	31c <IO_write>
	printf("[ENUM PROCESS]:step 8 TD Status Byte is %x\n",IO_read(HPI_DATA));
     d08:	0009883a 	mov	r4,zero
     d0c:	00003a40 	call	3a4 <IO_read>
     d10:	10bfffcc 	andi	r2,r2,65535
     d14:	100b883a 	mov	r5,r2
     d18:	01000074 	movhi	r4,1
     d1c:	2107df04 	addi	r4,r4,8060
     d20:	000235c0 	call	235c <printf>

	IO_write(HPI_ADDR,0x0508);
     d24:	01414204 	movi	r5,1288
     d28:	01000084 	movi	r4,2
     d2c:	000031c0 	call	31c <IO_write>
	usb_ctl_val = IO_read(HPI_DATA);
     d30:	0009883a 	mov	r4,zero
     d34:	00003a40 	call	3a4 <IO_read>
     d38:	e0bff90d 	sth	r2,-28(fp)
	printf("[ENUM PROCESS]:step 8 TD Control Byte is %x\n",usb_ctl_val);
     d3c:	e0bff90b 	ldhu	r2,-28(fp)
     d40:	100b883a 	mov	r5,r2
     d44:	01000074 	movhi	r4,1
     d48:	2107ea04 	addi	r4,r4,8104
     d4c:	000235c0 	call	235c <printf>
	while (usb_ctl_val != 0x03)
     d50:	00000206 	br	d5c <main+0x938>
	{
		usb_ctl_val = UsbGetRetryCnt();
     d54:	000222c0 	call	222c <UsbGetRetryCnt>
     d58:	e0bff90d 	sth	r2,-28(fp)
	printf("[ENUM PROCESS]:step 8 TD Status Byte is %x\n",IO_read(HPI_DATA));

	IO_write(HPI_ADDR,0x0508);
	usb_ctl_val = IO_read(HPI_DATA);
	printf("[ENUM PROCESS]:step 8 TD Control Byte is %x\n",usb_ctl_val);
	while (usb_ctl_val != 0x03)
     d5c:	e0bff90b 	ldhu	r2,-28(fp)
     d60:	108000d8 	cmpnei	r2,r2,3
     d64:	103ffb1e 	bne	r2,zero,d54 <__alt_mem_onchip_memory2_0+0xf7fffcb4>
	{
		usb_ctl_val = UsbGetRetryCnt();
	}


	printf("------------[ENUM PROCESS]:class request out done!-------------------\n");
     d68:	01000074 	movhi	r4,1
     d6c:	2107f604 	addi	r4,r4,8152
     d70:	00024580 	call	2458 <puts>

	// STEP 8 begin
	//----------------------------------get descriptor(class 0x21 = HID) request out --------------------------------//
	// TASK: Call the appropriate function for this step.
	UsbGetHidDesc();
     d74:	0001d200 	call	1d20 <UsbGetHidDesc>

	while (!(IO_read(HPI_STATUS) & HPI_STATUS_SIE1msg_FLAG) )  //read sie1 msg register
     d78:	00000306 	br	d88 <main+0x964>
	{
		// TASK: Call the appropriate function again if it wasn't processed successfully.
		UsbGetHidDesc();
     d7c:	0001d200 	call	1d20 <UsbGetHidDesc>
		usleep(10*1000);
     d80:	0109c404 	movi	r4,10000
     d84:	000fac40 	call	fac4 <usleep>
	// STEP 8 begin
	//----------------------------------get descriptor(class 0x21 = HID) request out --------------------------------//
	// TASK: Call the appropriate function for this step.
	UsbGetHidDesc();

	while (!(IO_read(HPI_STATUS) & HPI_STATUS_SIE1msg_FLAG) )  //read sie1 msg register
     d88:	010000c4 	movi	r4,3
     d8c:	00003a40 	call	3a4 <IO_read>
     d90:	10bfffcc 	andi	r2,r2,65535
     d94:	1080040c 	andi	r2,r2,16
     d98:	103ff826 	beq	r2,zero,d7c <__alt_mem_onchip_memory2_0+0xf7fffcdc>
		// TASK: Call the appropriate function again if it wasn't processed successfully.
		UsbGetHidDesc();
		usleep(10*1000);
	}

	UsbWaitTDListDone();
     d9c:	00021a80 	call	21a8 <UsbWaitTDListDone>

	IO_write(HPI_ADDR,0x0506);
     da0:	01414184 	movi	r5,1286
     da4:	01000084 	movi	r4,2
     da8:	000031c0 	call	31c <IO_write>
	printf("[ENUM PROCESS]:step 8 TD Status Byte is %x\n",IO_read(HPI_DATA));
     dac:	0009883a 	mov	r4,zero
     db0:	00003a40 	call	3a4 <IO_read>
     db4:	10bfffcc 	andi	r2,r2,65535
     db8:	100b883a 	mov	r5,r2
     dbc:	01000074 	movhi	r4,1
     dc0:	2107df04 	addi	r4,r4,8060
     dc4:	000235c0 	call	235c <printf>

	IO_write(HPI_ADDR,0x0508);
     dc8:	01414204 	movi	r5,1288
     dcc:	01000084 	movi	r4,2
     dd0:	000031c0 	call	31c <IO_write>
	usb_ctl_val = IO_read(HPI_DATA);
     dd4:	0009883a 	mov	r4,zero
     dd8:	00003a40 	call	3a4 <IO_read>
     ddc:	e0bff90d 	sth	r2,-28(fp)
	printf("[ENUM PROCESS]:step 8 TD Control Byte is %x\n",usb_ctl_val);
     de0:	e0bff90b 	ldhu	r2,-28(fp)
     de4:	100b883a 	mov	r5,r2
     de8:	01000074 	movhi	r4,1
     dec:	2107ea04 	addi	r4,r4,8104
     df0:	000235c0 	call	235c <printf>
	while (usb_ctl_val != 0x03)
     df4:	00000206 	br	e00 <main+0x9dc>
	{
		usb_ctl_val = UsbGetRetryCnt();
     df8:	000222c0 	call	222c <UsbGetRetryCnt>
     dfc:	e0bff90d 	sth	r2,-28(fp)
	printf("[ENUM PROCESS]:step 8 TD Status Byte is %x\n",IO_read(HPI_DATA));

	IO_write(HPI_ADDR,0x0508);
	usb_ctl_val = IO_read(HPI_DATA);
	printf("[ENUM PROCESS]:step 8 TD Control Byte is %x\n",usb_ctl_val);
	while (usb_ctl_val != 0x03)
     e00:	e0bff90b 	ldhu	r2,-28(fp)
     e04:	108000d8 	cmpnei	r2,r2,3
     e08:	103ffb1e 	bne	r2,zero,df8 <__alt_mem_onchip_memory2_0+0xf7fffd58>
	{
		usb_ctl_val = UsbGetRetryCnt();
	}

	printf("------------[ENUM PROCESS]:get descriptor (class 0x21) done!-------------------\n");
     e0c:	01000074 	movhi	r4,1
     e10:	21080804 	addi	r4,r4,8224
     e14:	00024580 	call	2458 <puts>

	// STEP 9 begin
	//-------------------------------get descriptor (class 0x22 = report)-------------------------------------------//
	// TASK: Call the appropriate function for this step.
	UsbGetReportDesc();
     e18:	0001e680 	call	1e68 <UsbGetReportDesc>
	//if no message
	while (!(IO_read(HPI_STATUS) & HPI_STATUS_SIE1msg_FLAG) )  //read sie1 msg register
     e1c:	00000306 	br	e2c <main+0xa08>
	{
		// TASK: Call the appropriate function again if it wasn't processed successfully.
		UsbGetReportDesc();
     e20:	0001e680 	call	1e68 <UsbGetReportDesc>
		usleep(10*1000);
     e24:	0109c404 	movi	r4,10000
     e28:	000fac40 	call	fac4 <usleep>
	// STEP 9 begin
	//-------------------------------get descriptor (class 0x22 = report)-------------------------------------------//
	// TASK: Call the appropriate function for this step.
	UsbGetReportDesc();
	//if no message
	while (!(IO_read(HPI_STATUS) & HPI_STATUS_SIE1msg_FLAG) )  //read sie1 msg register
     e2c:	010000c4 	movi	r4,3
     e30:	00003a40 	call	3a4 <IO_read>
     e34:	10bfffcc 	andi	r2,r2,65535
     e38:	1080040c 	andi	r2,r2,16
     e3c:	103ff826 	beq	r2,zero,e20 <__alt_mem_onchip_memory2_0+0xf7fffd80>
		// TASK: Call the appropriate function again if it wasn't processed successfully.
		UsbGetReportDesc();
		usleep(10*1000);
	}

	UsbWaitTDListDone();
     e40:	00021a80 	call	21a8 <UsbWaitTDListDone>

	IO_write(HPI_ADDR,0x0506);
     e44:	01414184 	movi	r5,1286
     e48:	01000084 	movi	r4,2
     e4c:	000031c0 	call	31c <IO_write>
	printf("[ENUM PROCESS]: step 9 TD Status Byte is %x\n",IO_read(HPI_DATA));
     e50:	0009883a 	mov	r4,zero
     e54:	00003a40 	call	3a4 <IO_read>
     e58:	10bfffcc 	andi	r2,r2,65535
     e5c:	100b883a 	mov	r5,r2
     e60:	01000074 	movhi	r4,1
     e64:	21081c04 	addi	r4,r4,8304
     e68:	000235c0 	call	235c <printf>

	IO_write(HPI_ADDR,0x0508);
     e6c:	01414204 	movi	r5,1288
     e70:	01000084 	movi	r4,2
     e74:	000031c0 	call	31c <IO_write>
	usb_ctl_val = IO_read(HPI_DATA);
     e78:	0009883a 	mov	r4,zero
     e7c:	00003a40 	call	3a4 <IO_read>
     e80:	e0bff90d 	sth	r2,-28(fp)
	printf("[ENUM PROCESS]: step 9 TD Control Byte is %x\n",usb_ctl_val);
     e84:	e0bff90b 	ldhu	r2,-28(fp)
     e88:	100b883a 	mov	r5,r2
     e8c:	01000074 	movhi	r4,1
     e90:	21082804 	addi	r4,r4,8352
     e94:	000235c0 	call	235c <printf>
	while (usb_ctl_val != 0x03)
     e98:	00000206 	br	ea4 <main+0xa80>
	{
		usb_ctl_val = UsbGetRetryCnt();
     e9c:	000222c0 	call	222c <UsbGetRetryCnt>
     ea0:	e0bff90d 	sth	r2,-28(fp)
	printf("[ENUM PROCESS]: step 9 TD Status Byte is %x\n",IO_read(HPI_DATA));

	IO_write(HPI_ADDR,0x0508);
	usb_ctl_val = IO_read(HPI_DATA);
	printf("[ENUM PROCESS]: step 9 TD Control Byte is %x\n",usb_ctl_val);
	while (usb_ctl_val != 0x03)
     ea4:	e0bff90b 	ldhu	r2,-28(fp)
     ea8:	108000d8 	cmpnei	r2,r2,3
     eac:	103ffb1e 	bne	r2,zero,e9c <__alt_mem_onchip_memory2_0+0xf7fffdfc>
	{
		usb_ctl_val = UsbGetRetryCnt();
	}

	printf("---------------[ENUM PROCESS]:get descriptor (class 0x22) done!----------------\n");
     eb0:	01000074 	movhi	r4,1
     eb4:	21083404 	addi	r4,r4,8400
     eb8:	00024580 	call	2458 <puts>



	//-----------------------------------get keycode value------------------------------------------------//
	usleep(10000);
     ebc:	0109c404 	movi	r4,10000
     ec0:	000fac40 	call	fac4 <usleep>
	while(1)
	{
		toggle++;
     ec4:	e0bff983 	ldbu	r2,-26(fp)
     ec8:	10800044 	addi	r2,r2,1
     ecc:	e0bff985 	stb	r2,-26(fp)
		IO_write(HPI_ADDR,0x0500); //the start address
     ed0:	01414004 	movi	r5,1280
     ed4:	01000084 	movi	r4,2
     ed8:	000031c0 	call	31c <IO_write>
		//data phase IN-1
		IO_write(HPI_DATA,0x051c); //500
     edc:	01414704 	movi	r5,1308
     ee0:	0009883a 	mov	r4,zero
     ee4:	000031c0 	call	31c <IO_write>

		IO_write(HPI_DATA,0x000f & data_size);//2 data length
     ee8:	e0bfff03 	ldbu	r2,-4(fp)
     eec:	108003cc 	andi	r2,r2,15
     ef0:	100b883a 	mov	r5,r2
     ef4:	0009883a 	mov	r4,zero
     ef8:	000031c0 	call	31c <IO_write>

		IO_write(HPI_DATA,0x0291);//4 //endpoint 1
     efc:	0140a444 	movi	r5,657
     f00:	0009883a 	mov	r4,zero
     f04:	000031c0 	call	31c <IO_write>
		if(toggle%2)
     f08:	e0bff983 	ldbu	r2,-26(fp)
     f0c:	1080004c 	andi	r2,r2,1
     f10:	10803fcc 	andi	r2,r2,255
     f14:	10000426 	beq	r2,zero,f28 <main+0xb04>
		{
			IO_write(HPI_DATA,0x0001);//6 //data 1
     f18:	01400044 	movi	r5,1
     f1c:	0009883a 	mov	r4,zero
     f20:	000031c0 	call	31c <IO_write>
     f24:	00000306 	br	f34 <main+0xb10>
		}
		else
		{
			IO_write(HPI_DATA,0x0041);//6 //data 1
     f28:	01401044 	movi	r5,65
     f2c:	0009883a 	mov	r4,zero
     f30:	000031c0 	call	31c <IO_write>
		}
		IO_write(HPI_DATA,0x0013);//8
     f34:	014004c4 	movi	r5,19
     f38:	0009883a 	mov	r4,zero
     f3c:	000031c0 	call	31c <IO_write>
		IO_write(HPI_DATA,0x0000);//a
     f40:	000b883a 	mov	r5,zero
     f44:	0009883a 	mov	r4,zero
     f48:	000031c0 	call	31c <IO_write>
		UsbWrite(HUSB_SIE1_pCurrentTDPtr,0x0500); //HUSB_SIE1_pCurrentTDPtr
     f4c:	01414004 	movi	r5,1280
     f50:	01006c04 	movi	r4,432
     f54:	00011b80 	call	11b8 <UsbWrite>
		
		while (!(IO_read(HPI_STATUS) & HPI_STATUS_SIE1msg_FLAG) )  //read sie1 msg register
     f58:	00002406 	br	fec <main+0xbc8>
		{
			IO_write(HPI_ADDR,0x0500); //the start address
     f5c:	01414004 	movi	r5,1280
     f60:	01000084 	movi	r4,2
     f64:	000031c0 	call	31c <IO_write>
			//data phase IN-1
			IO_write(HPI_DATA,0x051c); //500
     f68:	01414704 	movi	r5,1308
     f6c:	0009883a 	mov	r4,zero
     f70:	000031c0 	call	31c <IO_write>

			IO_write(HPI_DATA,0x000f & data_size);//2 data length
     f74:	e0bfff03 	ldbu	r2,-4(fp)
     f78:	108003cc 	andi	r2,r2,15
     f7c:	100b883a 	mov	r5,r2
     f80:	0009883a 	mov	r4,zero
     f84:	000031c0 	call	31c <IO_write>

			IO_write(HPI_DATA,0x0291);//4 //endpoint 1
     f88:	0140a444 	movi	r5,657
     f8c:	0009883a 	mov	r4,zero
     f90:	000031c0 	call	31c <IO_write>
			if(toggle%2)
     f94:	e0bff983 	ldbu	r2,-26(fp)
     f98:	1080004c 	andi	r2,r2,1
     f9c:	10803fcc 	andi	r2,r2,255
     fa0:	10000426 	beq	r2,zero,fb4 <main+0xb90>
			{
				IO_write(HPI_DATA,0x0001);//6 //data 1
     fa4:	01400044 	movi	r5,1
     fa8:	0009883a 	mov	r4,zero
     fac:	000031c0 	call	31c <IO_write>
     fb0:	00000306 	br	fc0 <main+0xb9c>
			}
			else
			{
				IO_write(HPI_DATA,0x0041);//6 //data 1
     fb4:	01401044 	movi	r5,65
     fb8:	0009883a 	mov	r4,zero
     fbc:	000031c0 	call	31c <IO_write>
			}
			IO_write(HPI_DATA,0x0013);//8
     fc0:	014004c4 	movi	r5,19
     fc4:	0009883a 	mov	r4,zero
     fc8:	000031c0 	call	31c <IO_write>
			IO_write(HPI_DATA,0x0000);//
     fcc:	000b883a 	mov	r5,zero
     fd0:	0009883a 	mov	r4,zero
     fd4:	000031c0 	call	31c <IO_write>
			UsbWrite(HUSB_SIE1_pCurrentTDPtr,0x0500); //HUSB_SIE1_pCurrentTDPtr
     fd8:	01414004 	movi	r5,1280
     fdc:	01006c04 	movi	r4,432
     fe0:	00011b80 	call	11b8 <UsbWrite>
			usleep(10*1000);
     fe4:	0109c404 	movi	r4,10000
     fe8:	000fac40 	call	fac4 <usleep>
		}
		IO_write(HPI_DATA,0x0013);//8
		IO_write(HPI_DATA,0x0000);//a
		UsbWrite(HUSB_SIE1_pCurrentTDPtr,0x0500); //HUSB_SIE1_pCurrentTDPtr
		
		while (!(IO_read(HPI_STATUS) & HPI_STATUS_SIE1msg_FLAG) )  //read sie1 msg register
     fec:	010000c4 	movi	r4,3
     ff0:	00003a40 	call	3a4 <IO_read>
     ff4:	10bfffcc 	andi	r2,r2,65535
     ff8:	1080040c 	andi	r2,r2,16
     ffc:	103fd726 	beq	r2,zero,f5c <__alt_mem_onchip_memory2_0+0xf7fffebc>
			IO_write(HPI_DATA,0x0000);//
			UsbWrite(HUSB_SIE1_pCurrentTDPtr,0x0500); //HUSB_SIE1_pCurrentTDPtr
			usleep(10*1000);
		}//end while

		usb_ctl_val = UsbWaitTDListDone();
    1000:	00021a80 	call	21a8 <UsbWaitTDListDone>
    1004:	e0bff90d 	sth	r2,-28(fp)

		// The first two keycodes are stored in 0x051E. Other keycodes are in 
		// subsequent addresses.
		keycode = UsbRead(0x051e);
    1008:	01014784 	movi	r4,1310
    100c:	00012100 	call	1210 <UsbRead>
    1010:	10bfffcc 	andi	r2,r2,65535
    1014:	e0bffb15 	stw	r2,-20(fp)
		printf("\nfirst two keycode values are %04x\n",keycode);
    1018:	e17ffb17 	ldw	r5,-20(fp)
    101c:	01000074 	movhi	r4,1
    1020:	21084804 	addi	r4,r4,8480
    1024:	000235c0 	call	235c <printf>
		modifier = UsbRead(0x051c);
    1028:	01014704 	movi	r4,1308
    102c:	00012100 	call	1210 <UsbRead>
    1030:	10bfffcc 	andi	r2,r2,65535
    1034:	e0bffc15 	stw	r2,-16(fp)
		printf("\nmodifier: %04x\n",modifier);
    1038:	e17ffc17 	ldw	r5,-16(fp)
    103c:	01000074 	movhi	r4,1
    1040:	21085104 	addi	r4,r4,8516
    1044:	000235c0 	call	235c <printf>
		// We only need the first keycode, which is at the lower byte of keycode.
		// Send the keycode to hardware via PIO.
		if(modifier != 0xc803) //get rid of initial keypresses
    1048:	e0fffc17 	ldw	r3,-16(fp)
    104c:	00b200d4 	movui	r2,51203
    1050:	18800826 	beq	r3,r2,1074 <main+0xc50>
		{
		*keycode_base = keycode & 0xff;
    1054:	00820034 	movhi	r2,2048
    1058:	10842404 	addi	r2,r2,4240
    105c:	e0fffb17 	ldw	r3,-20(fp)
    1060:	10c00005 	stb	r3,0(r2)
		*modifier_base = modifier & 0xff;
    1064:	e0bffc17 	ldw	r2,-16(fp)
    1068:	10c03fcc 	andi	r3,r2,255
    106c:	e0bffd17 	ldw	r2,-12(fp)
    1070:	10c00015 	stw	r3,0(r2)
		}

		usleep(200);//usleep(5000);
    1074:	01003204 	movi	r4,200
    1078:	000fac40 	call	fac4 <usleep>
		usb_ctl_val = UsbRead(ctl_reg);
    107c:	d0a6cb0b 	ldhu	r2,-25812(gp)
    1080:	10bfffcc 	andi	r2,r2,65535
    1084:	1009883a 	mov	r4,r2
    1088:	00012100 	call	1210 <UsbRead>
    108c:	e0bff90d 	sth	r2,-28(fp)

		if(!(usb_ctl_val & no_device))
    1090:	d0a6cb8b 	ldhu	r2,-25810(gp)
    1094:	e0fff90b 	ldhu	r3,-28(fp)
    1098:	1884703a 	and	r2,r3,r2
    109c:	10bfffcc 	andi	r2,r2,65535
    10a0:	10003f1e 	bne	r2,zero,11a0 <main+0xd7c>
		{
			//USB hot plug routine
			for(hot_plug_count = 0 ; hot_plug_count < 7 ; hot_plug_count++)
    10a4:	e03ff9c5 	stb	zero,-25(fp)
    10a8:	00000f06 	br	10e8 <main+0xcc4>
			{
				usleep(5*1000);
    10ac:	0104e204 	movi	r4,5000
    10b0:	000fac40 	call	fac4 <usleep>
				usb_ctl_val = UsbRead(ctl_reg);
    10b4:	d0a6cb0b 	ldhu	r2,-25812(gp)
    10b8:	10bfffcc 	andi	r2,r2,65535
    10bc:	1009883a 	mov	r4,r2
    10c0:	00012100 	call	1210 <UsbRead>
    10c4:	e0bff90d 	sth	r2,-28(fp)
				if(usb_ctl_val & no_device) break;
    10c8:	d0a6cb8b 	ldhu	r2,-25810(gp)
    10cc:	e0fff90b 	ldhu	r3,-28(fp)
    10d0:	1884703a 	and	r2,r3,r2
    10d4:	10bfffcc 	andi	r2,r2,65535
    10d8:	1000071e 	bne	r2,zero,10f8 <main+0xcd4>
		usb_ctl_val = UsbRead(ctl_reg);

		if(!(usb_ctl_val & no_device))
		{
			//USB hot plug routine
			for(hot_plug_count = 0 ; hot_plug_count < 7 ; hot_plug_count++)
    10dc:	e0bff9c3 	ldbu	r2,-25(fp)
    10e0:	10800044 	addi	r2,r2,1
    10e4:	e0bff9c5 	stb	r2,-25(fp)
    10e8:	e0bff9c3 	ldbu	r2,-25(fp)
    10ec:	108001f0 	cmpltui	r2,r2,7
    10f0:	103fee1e 	bne	r2,zero,10ac <__alt_mem_onchip_memory2_0+0xf800000c>
    10f4:	00000106 	br	10fc <main+0xcd8>
			{
				usleep(5*1000);
				usb_ctl_val = UsbRead(ctl_reg);
				if(usb_ctl_val & no_device) break;
    10f8:	0001883a 	nop
			}
			if(!(usb_ctl_val & no_device))
    10fc:	d0a6cb8b 	ldhu	r2,-25810(gp)
    1100:	e0fff90b 	ldhu	r3,-28(fp)
    1104:	1884703a 	and	r2,r3,r2
    1108:	10bfffcc 	andi	r2,r2,65535
    110c:	1000241e 	bne	r2,zero,11a0 <main+0xd7c>
			{
				printf("\n[INFO]: the keyboard has been removed!!! \n");
    1110:	01000074 	movhi	r4,1
    1114:	21085604 	addi	r4,r4,8536
    1118:	00024580 	call	2458 <puts>
				printf("[INFO]: please insert again!!! \n");
    111c:	01000074 	movhi	r4,1
    1120:	21086104 	addi	r4,r4,8580
    1124:	00024580 	call	2458 <puts>
			}
		}

		while (!(usb_ctl_val & no_device))
    1128:	00001d06 	br	11a0 <main+0xd7c>
		{

			usb_ctl_val = UsbRead(ctl_reg);
    112c:	d0a6cb0b 	ldhu	r2,-25812(gp)
    1130:	10bfffcc 	andi	r2,r2,65535
    1134:	1009883a 	mov	r4,r2
    1138:	00012100 	call	1210 <UsbRead>
    113c:	e0bff90d 	sth	r2,-28(fp)
			usleep(5*1000);
    1140:	0104e204 	movi	r4,5000
    1144:	000fac40 	call	fac4 <usleep>
			usb_ctl_val = UsbRead(ctl_reg);
    1148:	d0a6cb0b 	ldhu	r2,-25812(gp)
    114c:	10bfffcc 	andi	r2,r2,65535
    1150:	1009883a 	mov	r4,r2
    1154:	00012100 	call	1210 <UsbRead>
    1158:	e0bff90d 	sth	r2,-28(fp)
			usleep(5*1000);
    115c:	0104e204 	movi	r4,5000
    1160:	000fac40 	call	fac4 <usleep>
			usb_ctl_val = UsbRead(ctl_reg);
    1164:	d0a6cb0b 	ldhu	r2,-25812(gp)
    1168:	10bfffcc 	andi	r2,r2,65535
    116c:	1009883a 	mov	r4,r2
    1170:	00012100 	call	1210 <UsbRead>
    1174:	e0bff90d 	sth	r2,-28(fp)
			usleep(5*1000);
    1178:	0104e204 	movi	r4,5000
    117c:	000fac40 	call	fac4 <usleep>

			if(usb_ctl_val & no_device)
    1180:	d0a6cb8b 	ldhu	r2,-25810(gp)
    1184:	e0fff90b 	ldhu	r3,-28(fp)
    1188:	1884703a 	and	r2,r3,r2
    118c:	10bfffcc 	andi	r2,r2,65535
    1190:	10000126 	beq	r2,zero,1198 <main+0xd74>
				goto USB_HOT_PLUG;
    1194:	003cb206 	br	460 <__alt_mem_onchip_memory2_0+0xf7fff3c0>

			usleep(200);
    1198:	01003204 	movi	r4,200
    119c:	000fac40 	call	fac4 <usleep>
				printf("\n[INFO]: the keyboard has been removed!!! \n");
				printf("[INFO]: please insert again!!! \n");
			}
		}

		while (!(usb_ctl_val & no_device))
    11a0:	d0a6cb8b 	ldhu	r2,-25810(gp)
    11a4:	e0fff90b 	ldhu	r3,-28(fp)
    11a8:	1884703a 	and	r2,r3,r2
    11ac:	10bfffcc 	andi	r2,r2,65535
    11b0:	103fde26 	beq	r2,zero,112c <__alt_mem_onchip_memory2_0+0xf800008c>
				goto USB_HOT_PLUG;

			usleep(200);
		}

	}//end while
    11b4:	003f4306 	br	ec4 <__alt_mem_onchip_memory2_0+0xf7fffe24>

000011b8 <UsbWrite>:
    11b8:	defffc04 	addi	sp,sp,-16
    11bc:	dfc00315 	stw	ra,12(sp)
    11c0:	df000215 	stw	fp,8(sp)
    11c4:	df000204 	addi	fp,sp,8
    11c8:	2007883a 	mov	r3,r4
    11cc:	2805883a 	mov	r2,r5
    11d0:	e0fffe0d 	sth	r3,-8(fp)
    11d4:	e0bfff0d 	sth	r2,-4(fp)
    11d8:	e0bffe0b 	ldhu	r2,-8(fp)
    11dc:	100b883a 	mov	r5,r2
    11e0:	01000084 	movi	r4,2
    11e4:	000031c0 	call	31c <IO_write>
    11e8:	e0bfff0b 	ldhu	r2,-4(fp)
    11ec:	100b883a 	mov	r5,r2
    11f0:	0009883a 	mov	r4,zero
    11f4:	000031c0 	call	31c <IO_write>
    11f8:	0001883a 	nop
    11fc:	e037883a 	mov	sp,fp
    1200:	dfc00117 	ldw	ra,4(sp)
    1204:	df000017 	ldw	fp,0(sp)
    1208:	dec00204 	addi	sp,sp,8
    120c:	f800283a 	ret

00001210 <UsbRead>:
    1210:	defffd04 	addi	sp,sp,-12
    1214:	dfc00215 	stw	ra,8(sp)
    1218:	df000115 	stw	fp,4(sp)
    121c:	df000104 	addi	fp,sp,4
    1220:	2005883a 	mov	r2,r4
    1224:	e0bfff0d 	sth	r2,-4(fp)
    1228:	e0bfff0b 	ldhu	r2,-4(fp)
    122c:	100b883a 	mov	r5,r2
    1230:	01000084 	movi	r4,2
    1234:	000031c0 	call	31c <IO_write>
    1238:	0009883a 	mov	r4,zero
    123c:	00003a40 	call	3a4 <IO_read>
    1240:	e037883a 	mov	sp,fp
    1244:	dfc00117 	ldw	ra,4(sp)
    1248:	df000017 	ldw	fp,0(sp)
    124c:	dec00204 	addi	sp,sp,8
    1250:	f800283a 	ret

00001254 <UsbSoftReset>:
    1254:	defffe04 	addi	sp,sp,-8
    1258:	dfc00115 	stw	ra,4(sp)
    125c:	df000015 	stw	fp,0(sp)
    1260:	d839883a 	mov	fp,sp
    1264:	017e9414 	movui	r5,64080
    1268:	01000044 	movi	r4,1
    126c:	000031c0 	call	31c <IO_write>
    1270:	010000b4 	movhi	r4,2
    1274:	2121a804 	addi	r4,r4,-31072
    1278:	000fac40 	call	fac4 <usleep>
    127c:	01000074 	movhi	r4,1
    1280:	21086904 	addi	r4,r4,8612
    1284:	00024580 	call	2458 <puts>
    1288:	01000234 	movhi	r4,8
    128c:	21284804 	addi	r4,r4,-24288
    1290:	000fac40 	call	fac4 <usleep>
    1294:	01000074 	movhi	r4,1
    1298:	21087004 	addi	r4,r4,8640
    129c:	00024580 	call	2458 <puts>
    12a0:	01000044 	movi	r4,1
    12a4:	00003a40 	call	3a4 <IO_read>
    12a8:	010000c4 	movi	r4,3
    12ac:	00003a40 	call	3a4 <IO_read>
    12b0:	01005104 	movi	r4,324
    12b4:	00012100 	call	1210 <UsbRead>
    12b8:	000b883a 	mov	r5,zero
    12bc:	01005104 	movi	r4,324
    12c0:	00011b80 	call	11b8 <UsbWrite>
    12c4:	01005204 	movi	r4,328
    12c8:	00012100 	call	1210 <UsbRead>
    12cc:	000b883a 	mov	r5,zero
    12d0:	01005204 	movi	r4,328
    12d4:	00011b80 	call	11b8 <UsbWrite>
    12d8:	017fffd4 	movui	r5,65535
    12dc:	01302414 	movui	r4,49296
    12e0:	00011b80 	call	11b8 <UsbWrite>
    12e4:	017fffd4 	movui	r5,65535
    12e8:	01302c14 	movui	r4,49328
    12ec:	00011b80 	call	11b8 <UsbWrite>
    12f0:	0001883a 	nop
    12f4:	e037883a 	mov	sp,fp
    12f8:	dfc00117 	ldw	ra,4(sp)
    12fc:	df000017 	ldw	fp,0(sp)
    1300:	dec00204 	addi	sp,sp,8
    1304:	f800283a 	ret

00001308 <UsbSetAddress>:
    1308:	defffe04 	addi	sp,sp,-8
    130c:	dfc00115 	stw	ra,4(sp)
    1310:	df000015 	stw	fp,0(sp)
    1314:	d839883a 	mov	fp,sp
    1318:	01414004 	movi	r5,1280
    131c:	01000084 	movi	r4,2
    1320:	000031c0 	call	31c <IO_write>
    1324:	01414304 	movi	r5,1292
    1328:	0009883a 	mov	r4,zero
    132c:	000031c0 	call	31c <IO_write>
    1330:	01400204 	movi	r5,8
    1334:	0009883a 	mov	r4,zero
    1338:	000031c0 	call	31c <IO_write>
    133c:	01403404 	movi	r5,208
    1340:	0009883a 	mov	r4,zero
    1344:	000031c0 	call	31c <IO_write>
    1348:	01400044 	movi	r5,1
    134c:	0009883a 	mov	r4,zero
    1350:	000031c0 	call	31c <IO_write>
    1354:	014004c4 	movi	r5,19
    1358:	0009883a 	mov	r4,zero
    135c:	000031c0 	call	31c <IO_write>
    1360:	01414504 	movi	r5,1300
    1364:	0009883a 	mov	r4,zero
    1368:	000031c0 	call	31c <IO_write>
    136c:	01414004 	movi	r5,1280
    1370:	0009883a 	mov	r4,zero
    1374:	000031c0 	call	31c <IO_write>
    1378:	01400084 	movi	r5,2
    137c:	0009883a 	mov	r4,zero
    1380:	000031c0 	call	31c <IO_write>
    1384:	000b883a 	mov	r5,zero
    1388:	0009883a 	mov	r4,zero
    138c:	000031c0 	call	31c <IO_write>
    1390:	000b883a 	mov	r5,zero
    1394:	0009883a 	mov	r4,zero
    1398:	000031c0 	call	31c <IO_write>
    139c:	000b883a 	mov	r5,zero
    13a0:	0009883a 	mov	r4,zero
    13a4:	000031c0 	call	31c <IO_write>
    13a8:	000b883a 	mov	r5,zero
    13ac:	0009883a 	mov	r4,zero
    13b0:	000031c0 	call	31c <IO_write>
    13b4:	01402404 	movi	r5,144
    13b8:	0009883a 	mov	r4,zero
    13bc:	000031c0 	call	31c <IO_write>
    13c0:	01401044 	movi	r5,65
    13c4:	0009883a 	mov	r4,zero
    13c8:	000031c0 	call	31c <IO_write>
    13cc:	014004c4 	movi	r5,19
    13d0:	0009883a 	mov	r4,zero
    13d4:	000031c0 	call	31c <IO_write>
    13d8:	000b883a 	mov	r5,zero
    13dc:	0009883a 	mov	r4,zero
    13e0:	000031c0 	call	31c <IO_write>
    13e4:	01414004 	movi	r5,1280
    13e8:	01006c04 	movi	r4,432
    13ec:	00011b80 	call	11b8 <UsbWrite>
    13f0:	0001883a 	nop
    13f4:	e037883a 	mov	sp,fp
    13f8:	dfc00117 	ldw	ra,4(sp)
    13fc:	df000017 	ldw	fp,0(sp)
    1400:	dec00204 	addi	sp,sp,8
    1404:	f800283a 	ret

00001408 <UsbGetDeviceDesc1>:
    1408:	defffe04 	addi	sp,sp,-8
    140c:	dfc00115 	stw	ra,4(sp)
    1410:	df000015 	stw	fp,0(sp)
    1414:	d839883a 	mov	fp,sp
    1418:	01414004 	movi	r5,1280
    141c:	01000084 	movi	r4,2
    1420:	000031c0 	call	31c <IO_write>
    1424:	01414304 	movi	r5,1292
    1428:	0009883a 	mov	r4,zero
    142c:	000031c0 	call	31c <IO_write>
    1430:	01400204 	movi	r5,8
    1434:	0009883a 	mov	r4,zero
    1438:	000031c0 	call	31c <IO_write>
    143c:	0140b404 	movi	r5,720
    1440:	0009883a 	mov	r4,zero
    1444:	000031c0 	call	31c <IO_write>
    1448:	01400044 	movi	r5,1
    144c:	0009883a 	mov	r4,zero
    1450:	000031c0 	call	31c <IO_write>
    1454:	014004c4 	movi	r5,19
    1458:	0009883a 	mov	r4,zero
    145c:	000031c0 	call	31c <IO_write>
    1460:	01414504 	movi	r5,1300
    1464:	0009883a 	mov	r4,zero
    1468:	000031c0 	call	31c <IO_write>
    146c:	0141a004 	movi	r5,1664
    1470:	0009883a 	mov	r4,zero
    1474:	000031c0 	call	31c <IO_write>
    1478:	01404004 	movi	r5,256
    147c:	0009883a 	mov	r4,zero
    1480:	000031c0 	call	31c <IO_write>
    1484:	000b883a 	mov	r5,zero
    1488:	0009883a 	mov	r4,zero
    148c:	000031c0 	call	31c <IO_write>
    1490:	01400204 	movi	r5,8
    1494:	0009883a 	mov	r4,zero
    1498:	000031c0 	call	31c <IO_write>
    149c:	01414b04 	movi	r5,1324
    14a0:	0009883a 	mov	r4,zero
    14a4:	000031c0 	call	31c <IO_write>
    14a8:	01400204 	movi	r5,8
    14ac:	0009883a 	mov	r4,zero
    14b0:	000031c0 	call	31c <IO_write>
    14b4:	0140a404 	movi	r5,656
    14b8:	0009883a 	mov	r4,zero
    14bc:	000031c0 	call	31c <IO_write>
    14c0:	01401044 	movi	r5,65
    14c4:	0009883a 	mov	r4,zero
    14c8:	000031c0 	call	31c <IO_write>
    14cc:	014004c4 	movi	r5,19
    14d0:	0009883a 	mov	r4,zero
    14d4:	000031c0 	call	31c <IO_write>
    14d8:	01414804 	movi	r5,1312
    14dc:	0009883a 	mov	r4,zero
    14e0:	000031c0 	call	31c <IO_write>
    14e4:	000b883a 	mov	r5,zero
    14e8:	0009883a 	mov	r4,zero
    14ec:	000031c0 	call	31c <IO_write>
    14f0:	000b883a 	mov	r5,zero
    14f4:	0009883a 	mov	r4,zero
    14f8:	000031c0 	call	31c <IO_write>
    14fc:	01408404 	movi	r5,528
    1500:	0009883a 	mov	r4,zero
    1504:	000031c0 	call	31c <IO_write>
    1508:	01401044 	movi	r5,65
    150c:	0009883a 	mov	r4,zero
    1510:	000031c0 	call	31c <IO_write>
    1514:	014004c4 	movi	r5,19
    1518:	0009883a 	mov	r4,zero
    151c:	000031c0 	call	31c <IO_write>
    1520:	000b883a 	mov	r5,zero
    1524:	0009883a 	mov	r4,zero
    1528:	000031c0 	call	31c <IO_write>
    152c:	01414004 	movi	r5,1280
    1530:	01006c04 	movi	r4,432
    1534:	00011b80 	call	11b8 <UsbWrite>
    1538:	0001883a 	nop
    153c:	e037883a 	mov	sp,fp
    1540:	dfc00117 	ldw	ra,4(sp)
    1544:	df000017 	ldw	fp,0(sp)
    1548:	dec00204 	addi	sp,sp,8
    154c:	f800283a 	ret

00001550 <UsbGetDeviceDesc2>:
    1550:	defffe04 	addi	sp,sp,-8
    1554:	dfc00115 	stw	ra,4(sp)
    1558:	df000015 	stw	fp,0(sp)
    155c:	d839883a 	mov	fp,sp
    1560:	01414004 	movi	r5,1280
    1564:	01000084 	movi	r4,2
    1568:	000031c0 	call	31c <IO_write>
    156c:	01414304 	movi	r5,1292
    1570:	0009883a 	mov	r4,zero
    1574:	000031c0 	call	31c <IO_write>
    1578:	01400204 	movi	r5,8
    157c:	0009883a 	mov	r4,zero
    1580:	000031c0 	call	31c <IO_write>
    1584:	0140b404 	movi	r5,720
    1588:	0009883a 	mov	r4,zero
    158c:	000031c0 	call	31c <IO_write>
    1590:	01400044 	movi	r5,1
    1594:	0009883a 	mov	r4,zero
    1598:	000031c0 	call	31c <IO_write>
    159c:	014004c4 	movi	r5,19
    15a0:	0009883a 	mov	r4,zero
    15a4:	000031c0 	call	31c <IO_write>
    15a8:	01414504 	movi	r5,1300
    15ac:	0009883a 	mov	r4,zero
    15b0:	000031c0 	call	31c <IO_write>
    15b4:	0141a004 	movi	r5,1664
    15b8:	0009883a 	mov	r4,zero
    15bc:	000031c0 	call	31c <IO_write>
    15c0:	01404004 	movi	r5,256
    15c4:	0009883a 	mov	r4,zero
    15c8:	000031c0 	call	31c <IO_write>
    15cc:	000b883a 	mov	r5,zero
    15d0:	0009883a 	mov	r4,zero
    15d4:	000031c0 	call	31c <IO_write>
    15d8:	01400484 	movi	r5,18
    15dc:	0009883a 	mov	r4,zero
    15e0:	000031c0 	call	31c <IO_write>
    15e4:	01415104 	movi	r5,1348
    15e8:	0009883a 	mov	r4,zero
    15ec:	000031c0 	call	31c <IO_write>
    15f0:	01400204 	movi	r5,8
    15f4:	0009883a 	mov	r4,zero
    15f8:	000031c0 	call	31c <IO_write>
    15fc:	0140a404 	movi	r5,656
    1600:	0009883a 	mov	r4,zero
    1604:	000031c0 	call	31c <IO_write>
    1608:	01401044 	movi	r5,65
    160c:	0009883a 	mov	r4,zero
    1610:	000031c0 	call	31c <IO_write>
    1614:	014004c4 	movi	r5,19
    1618:	0009883a 	mov	r4,zero
    161c:	000031c0 	call	31c <IO_write>
    1620:	01414804 	movi	r5,1312
    1624:	0009883a 	mov	r4,zero
    1628:	000031c0 	call	31c <IO_write>
    162c:	01415304 	movi	r5,1356
    1630:	0009883a 	mov	r4,zero
    1634:	000031c0 	call	31c <IO_write>
    1638:	01400204 	movi	r5,8
    163c:	0009883a 	mov	r4,zero
    1640:	000031c0 	call	31c <IO_write>
    1644:	0140a404 	movi	r5,656
    1648:	0009883a 	mov	r4,zero
    164c:	000031c0 	call	31c <IO_write>
    1650:	01400044 	movi	r5,1
    1654:	0009883a 	mov	r4,zero
    1658:	000031c0 	call	31c <IO_write>
    165c:	014004c4 	movi	r5,19
    1660:	0009883a 	mov	r4,zero
    1664:	000031c0 	call	31c <IO_write>
    1668:	01414b04 	movi	r5,1324
    166c:	0009883a 	mov	r4,zero
    1670:	000031c0 	call	31c <IO_write>
    1674:	01415504 	movi	r5,1364
    1678:	0009883a 	mov	r4,zero
    167c:	000031c0 	call	31c <IO_write>
    1680:	01400084 	movi	r5,2
    1684:	0009883a 	mov	r4,zero
    1688:	000031c0 	call	31c <IO_write>
    168c:	0140a404 	movi	r5,656
    1690:	0009883a 	mov	r4,zero
    1694:	000031c0 	call	31c <IO_write>
    1698:	01401044 	movi	r5,65
    169c:	0009883a 	mov	r4,zero
    16a0:	000031c0 	call	31c <IO_write>
    16a4:	014004c4 	movi	r5,19
    16a8:	0009883a 	mov	r4,zero
    16ac:	000031c0 	call	31c <IO_write>
    16b0:	01414e04 	movi	r5,1336
    16b4:	0009883a 	mov	r4,zero
    16b8:	000031c0 	call	31c <IO_write>
    16bc:	000b883a 	mov	r5,zero
    16c0:	0009883a 	mov	r4,zero
    16c4:	000031c0 	call	31c <IO_write>
    16c8:	000b883a 	mov	r5,zero
    16cc:	0009883a 	mov	r4,zero
    16d0:	000031c0 	call	31c <IO_write>
    16d4:	01408404 	movi	r5,528
    16d8:	0009883a 	mov	r4,zero
    16dc:	000031c0 	call	31c <IO_write>
    16e0:	01401044 	movi	r5,65
    16e4:	0009883a 	mov	r4,zero
    16e8:	000031c0 	call	31c <IO_write>
    16ec:	014004c4 	movi	r5,19
    16f0:	0009883a 	mov	r4,zero
    16f4:	000031c0 	call	31c <IO_write>
    16f8:	000b883a 	mov	r5,zero
    16fc:	0009883a 	mov	r4,zero
    1700:	000031c0 	call	31c <IO_write>
    1704:	01414004 	movi	r5,1280
    1708:	01006c04 	movi	r4,432
    170c:	00011b80 	call	11b8 <UsbWrite>
    1710:	0001883a 	nop
    1714:	e037883a 	mov	sp,fp
    1718:	dfc00117 	ldw	ra,4(sp)
    171c:	df000017 	ldw	fp,0(sp)
    1720:	dec00204 	addi	sp,sp,8
    1724:	f800283a 	ret

00001728 <UsbGetConfigDesc1>:
    1728:	defffe04 	addi	sp,sp,-8
    172c:	dfc00115 	stw	ra,4(sp)
    1730:	df000015 	stw	fp,0(sp)
    1734:	d839883a 	mov	fp,sp
    1738:	01414004 	movi	r5,1280
    173c:	01000084 	movi	r4,2
    1740:	000031c0 	call	31c <IO_write>
    1744:	01414304 	movi	r5,1292
    1748:	0009883a 	mov	r4,zero
    174c:	000031c0 	call	31c <IO_write>
    1750:	01400204 	movi	r5,8
    1754:	0009883a 	mov	r4,zero
    1758:	000031c0 	call	31c <IO_write>
    175c:	0140b404 	movi	r5,720
    1760:	0009883a 	mov	r4,zero
    1764:	000031c0 	call	31c <IO_write>
    1768:	01400044 	movi	r5,1
    176c:	0009883a 	mov	r4,zero
    1770:	000031c0 	call	31c <IO_write>
    1774:	014004c4 	movi	r5,19
    1778:	0009883a 	mov	r4,zero
    177c:	000031c0 	call	31c <IO_write>
    1780:	01414504 	movi	r5,1300
    1784:	0009883a 	mov	r4,zero
    1788:	000031c0 	call	31c <IO_write>
    178c:	0141a004 	movi	r5,1664
    1790:	0009883a 	mov	r4,zero
    1794:	000031c0 	call	31c <IO_write>
    1798:	01408004 	movi	r5,512
    179c:	0009883a 	mov	r4,zero
    17a0:	000031c0 	call	31c <IO_write>
    17a4:	000b883a 	mov	r5,zero
    17a8:	0009883a 	mov	r4,zero
    17ac:	000031c0 	call	31c <IO_write>
    17b0:	01400244 	movi	r5,9
    17b4:	0009883a 	mov	r4,zero
    17b8:	000031c0 	call	31c <IO_write>
    17bc:	01415104 	movi	r5,1348
    17c0:	0009883a 	mov	r4,zero
    17c4:	000031c0 	call	31c <IO_write>
    17c8:	01400204 	movi	r5,8
    17cc:	0009883a 	mov	r4,zero
    17d0:	000031c0 	call	31c <IO_write>
    17d4:	0140a404 	movi	r5,656
    17d8:	0009883a 	mov	r4,zero
    17dc:	000031c0 	call	31c <IO_write>
    17e0:	01401044 	movi	r5,65
    17e4:	0009883a 	mov	r4,zero
    17e8:	000031c0 	call	31c <IO_write>
    17ec:	014004c4 	movi	r5,19
    17f0:	0009883a 	mov	r4,zero
    17f4:	000031c0 	call	31c <IO_write>
    17f8:	01414804 	movi	r5,1312
    17fc:	0009883a 	mov	r4,zero
    1800:	000031c0 	call	31c <IO_write>
    1804:	01415304 	movi	r5,1356
    1808:	0009883a 	mov	r4,zero
    180c:	000031c0 	call	31c <IO_write>
    1810:	01400044 	movi	r5,1
    1814:	0009883a 	mov	r4,zero
    1818:	000031c0 	call	31c <IO_write>
    181c:	0140a404 	movi	r5,656
    1820:	0009883a 	mov	r4,zero
    1824:	000031c0 	call	31c <IO_write>
    1828:	01400044 	movi	r5,1
    182c:	0009883a 	mov	r4,zero
    1830:	000031c0 	call	31c <IO_write>
    1834:	014004c4 	movi	r5,19
    1838:	0009883a 	mov	r4,zero
    183c:	000031c0 	call	31c <IO_write>
    1840:	01414b04 	movi	r5,1324
    1844:	0009883a 	mov	r4,zero
    1848:	000031c0 	call	31c <IO_write>
    184c:	000b883a 	mov	r5,zero
    1850:	0009883a 	mov	r4,zero
    1854:	000031c0 	call	31c <IO_write>
    1858:	000b883a 	mov	r5,zero
    185c:	0009883a 	mov	r4,zero
    1860:	000031c0 	call	31c <IO_write>
    1864:	01408404 	movi	r5,528
    1868:	0009883a 	mov	r4,zero
    186c:	000031c0 	call	31c <IO_write>
    1870:	01401044 	movi	r5,65
    1874:	0009883a 	mov	r4,zero
    1878:	000031c0 	call	31c <IO_write>
    187c:	014004c4 	movi	r5,19
    1880:	0009883a 	mov	r4,zero
    1884:	000031c0 	call	31c <IO_write>
    1888:	000b883a 	mov	r5,zero
    188c:	0009883a 	mov	r4,zero
    1890:	000031c0 	call	31c <IO_write>
    1894:	01414004 	movi	r5,1280
    1898:	01006c04 	movi	r4,432
    189c:	00011b80 	call	11b8 <UsbWrite>
    18a0:	0001883a 	nop
    18a4:	e037883a 	mov	sp,fp
    18a8:	dfc00117 	ldw	ra,4(sp)
    18ac:	df000017 	ldw	fp,0(sp)
    18b0:	dec00204 	addi	sp,sp,8
    18b4:	f800283a 	ret

000018b8 <UsbGetConfigDesc2>:
    18b8:	defffe04 	addi	sp,sp,-8
    18bc:	dfc00115 	stw	ra,4(sp)
    18c0:	df000015 	stw	fp,0(sp)
    18c4:	d839883a 	mov	fp,sp
    18c8:	01414004 	movi	r5,1280
    18cc:	01000084 	movi	r4,2
    18d0:	000031c0 	call	31c <IO_write>
    18d4:	01414304 	movi	r5,1292
    18d8:	0009883a 	mov	r4,zero
    18dc:	000031c0 	call	31c <IO_write>
    18e0:	01400204 	movi	r5,8
    18e4:	0009883a 	mov	r4,zero
    18e8:	000031c0 	call	31c <IO_write>
    18ec:	0140b404 	movi	r5,720
    18f0:	0009883a 	mov	r4,zero
    18f4:	000031c0 	call	31c <IO_write>
    18f8:	01400044 	movi	r5,1
    18fc:	0009883a 	mov	r4,zero
    1900:	000031c0 	call	31c <IO_write>
    1904:	014004c4 	movi	r5,19
    1908:	0009883a 	mov	r4,zero
    190c:	000031c0 	call	31c <IO_write>
    1910:	01414504 	movi	r5,1300
    1914:	0009883a 	mov	r4,zero
    1918:	000031c0 	call	31c <IO_write>
    191c:	0141a004 	movi	r5,1664
    1920:	0009883a 	mov	r4,zero
    1924:	000031c0 	call	31c <IO_write>
    1928:	01408004 	movi	r5,512
    192c:	0009883a 	mov	r4,zero
    1930:	000031c0 	call	31c <IO_write>
    1934:	000b883a 	mov	r5,zero
    1938:	0009883a 	mov	r4,zero
    193c:	000031c0 	call	31c <IO_write>
    1940:	01403fc4 	movi	r5,255
    1944:	0009883a 	mov	r4,zero
    1948:	000031c0 	call	31c <IO_write>
    194c:	01415704 	movi	r5,1372
    1950:	0009883a 	mov	r4,zero
    1954:	000031c0 	call	31c <IO_write>
    1958:	01400204 	movi	r5,8
    195c:	0009883a 	mov	r4,zero
    1960:	000031c0 	call	31c <IO_write>
    1964:	0140a404 	movi	r5,656
    1968:	0009883a 	mov	r4,zero
    196c:	000031c0 	call	31c <IO_write>
    1970:	01401044 	movi	r5,65
    1974:	0009883a 	mov	r4,zero
    1978:	000031c0 	call	31c <IO_write>
    197c:	014004c4 	movi	r5,19
    1980:	0009883a 	mov	r4,zero
    1984:	000031c0 	call	31c <IO_write>
    1988:	01414804 	movi	r5,1312
    198c:	0009883a 	mov	r4,zero
    1990:	000031c0 	call	31c <IO_write>
    1994:	01415904 	movi	r5,1380
    1998:	0009883a 	mov	r4,zero
    199c:	000031c0 	call	31c <IO_write>
    19a0:	01400204 	movi	r5,8
    19a4:	0009883a 	mov	r4,zero
    19a8:	000031c0 	call	31c <IO_write>
    19ac:	0140a404 	movi	r5,656
    19b0:	0009883a 	mov	r4,zero
    19b4:	000031c0 	call	31c <IO_write>
    19b8:	01400044 	movi	r5,1
    19bc:	0009883a 	mov	r4,zero
    19c0:	000031c0 	call	31c <IO_write>
    19c4:	014004c4 	movi	r5,19
    19c8:	0009883a 	mov	r4,zero
    19cc:	000031c0 	call	31c <IO_write>
    19d0:	01414b04 	movi	r5,1324
    19d4:	0009883a 	mov	r4,zero
    19d8:	000031c0 	call	31c <IO_write>
    19dc:	01415b04 	movi	r5,1388
    19e0:	0009883a 	mov	r4,zero
    19e4:	000031c0 	call	31c <IO_write>
    19e8:	01400204 	movi	r5,8
    19ec:	0009883a 	mov	r4,zero
    19f0:	000031c0 	call	31c <IO_write>
    19f4:	0140a404 	movi	r5,656
    19f8:	0009883a 	mov	r4,zero
    19fc:	000031c0 	call	31c <IO_write>
    1a00:	01401044 	movi	r5,65
    1a04:	0009883a 	mov	r4,zero
    1a08:	000031c0 	call	31c <IO_write>
    1a0c:	014004c4 	movi	r5,19
    1a10:	0009883a 	mov	r4,zero
    1a14:	000031c0 	call	31c <IO_write>
    1a18:	01414e04 	movi	r5,1336
    1a1c:	0009883a 	mov	r4,zero
    1a20:	000031c0 	call	31c <IO_write>
    1a24:	01415d04 	movi	r5,1396
    1a28:	0009883a 	mov	r4,zero
    1a2c:	000031c0 	call	31c <IO_write>
    1a30:	01400204 	movi	r5,8
    1a34:	0009883a 	mov	r4,zero
    1a38:	000031c0 	call	31c <IO_write>
    1a3c:	0140a404 	movi	r5,656
    1a40:	0009883a 	mov	r4,zero
    1a44:	000031c0 	call	31c <IO_write>
    1a48:	01400044 	movi	r5,1
    1a4c:	0009883a 	mov	r4,zero
    1a50:	000031c0 	call	31c <IO_write>
    1a54:	014004c4 	movi	r5,19
    1a58:	0009883a 	mov	r4,zero
    1a5c:	000031c0 	call	31c <IO_write>
    1a60:	01415104 	movi	r5,1348
    1a64:	0009883a 	mov	r4,zero
    1a68:	000031c0 	call	31c <IO_write>
    1a6c:	01415f04 	movi	r5,1404
    1a70:	0009883a 	mov	r4,zero
    1a74:	000031c0 	call	31c <IO_write>
    1a78:	01400084 	movi	r5,2
    1a7c:	0009883a 	mov	r4,zero
    1a80:	000031c0 	call	31c <IO_write>
    1a84:	0140a404 	movi	r5,656
    1a88:	0009883a 	mov	r4,zero
    1a8c:	000031c0 	call	31c <IO_write>
    1a90:	01401044 	movi	r5,65
    1a94:	0009883a 	mov	r4,zero
    1a98:	000031c0 	call	31c <IO_write>
    1a9c:	014004c4 	movi	r5,19
    1aa0:	0009883a 	mov	r4,zero
    1aa4:	000031c0 	call	31c <IO_write>
    1aa8:	01415404 	movi	r5,1360
    1aac:	0009883a 	mov	r4,zero
    1ab0:	000031c0 	call	31c <IO_write>
    1ab4:	000b883a 	mov	r5,zero
    1ab8:	0009883a 	mov	r4,zero
    1abc:	000031c0 	call	31c <IO_write>
    1ac0:	000b883a 	mov	r5,zero
    1ac4:	0009883a 	mov	r4,zero
    1ac8:	000031c0 	call	31c <IO_write>
    1acc:	01408404 	movi	r5,528
    1ad0:	0009883a 	mov	r4,zero
    1ad4:	000031c0 	call	31c <IO_write>
    1ad8:	01401044 	movi	r5,65
    1adc:	0009883a 	mov	r4,zero
    1ae0:	000031c0 	call	31c <IO_write>
    1ae4:	014004c4 	movi	r5,19
    1ae8:	0009883a 	mov	r4,zero
    1aec:	000031c0 	call	31c <IO_write>
    1af0:	000b883a 	mov	r5,zero
    1af4:	0009883a 	mov	r4,zero
    1af8:	000031c0 	call	31c <IO_write>
    1afc:	01414004 	movi	r5,1280
    1b00:	01006c04 	movi	r4,432
    1b04:	00011b80 	call	11b8 <UsbWrite>
    1b08:	0001883a 	nop
    1b0c:	e037883a 	mov	sp,fp
    1b10:	dfc00117 	ldw	ra,4(sp)
    1b14:	df000017 	ldw	fp,0(sp)
    1b18:	dec00204 	addi	sp,sp,8
    1b1c:	f800283a 	ret

00001b20 <UsbSetConfig>:
    1b20:	defffe04 	addi	sp,sp,-8
    1b24:	dfc00115 	stw	ra,4(sp)
    1b28:	df000015 	stw	fp,0(sp)
    1b2c:	d839883a 	mov	fp,sp
    1b30:	01414004 	movi	r5,1280
    1b34:	01000084 	movi	r4,2
    1b38:	000031c0 	call	31c <IO_write>
    1b3c:	01414304 	movi	r5,1292
    1b40:	0009883a 	mov	r4,zero
    1b44:	000031c0 	call	31c <IO_write>
    1b48:	01400204 	movi	r5,8
    1b4c:	0009883a 	mov	r4,zero
    1b50:	000031c0 	call	31c <IO_write>
    1b54:	0140b404 	movi	r5,720
    1b58:	0009883a 	mov	r4,zero
    1b5c:	000031c0 	call	31c <IO_write>
    1b60:	01400044 	movi	r5,1
    1b64:	0009883a 	mov	r4,zero
    1b68:	000031c0 	call	31c <IO_write>
    1b6c:	014004c4 	movi	r5,19
    1b70:	0009883a 	mov	r4,zero
    1b74:	000031c0 	call	31c <IO_write>
    1b78:	01414504 	movi	r5,1300
    1b7c:	0009883a 	mov	r4,zero
    1b80:	000031c0 	call	31c <IO_write>
    1b84:	01424004 	movi	r5,2304
    1b88:	0009883a 	mov	r4,zero
    1b8c:	000031c0 	call	31c <IO_write>
    1b90:	01400044 	movi	r5,1
    1b94:	0009883a 	mov	r4,zero
    1b98:	000031c0 	call	31c <IO_write>
    1b9c:	000b883a 	mov	r5,zero
    1ba0:	0009883a 	mov	r4,zero
    1ba4:	000031c0 	call	31c <IO_write>
    1ba8:	000b883a 	mov	r5,zero
    1bac:	0009883a 	mov	r4,zero
    1bb0:	000031c0 	call	31c <IO_write>
    1bb4:	000b883a 	mov	r5,zero
    1bb8:	0009883a 	mov	r4,zero
    1bbc:	000031c0 	call	31c <IO_write>
    1bc0:	000b883a 	mov	r5,zero
    1bc4:	0009883a 	mov	r4,zero
    1bc8:	000031c0 	call	31c <IO_write>
    1bcc:	0140a404 	movi	r5,656
    1bd0:	0009883a 	mov	r4,zero
    1bd4:	000031c0 	call	31c <IO_write>
    1bd8:	01401044 	movi	r5,65
    1bdc:	0009883a 	mov	r4,zero
    1be0:	000031c0 	call	31c <IO_write>
    1be4:	014004c4 	movi	r5,19
    1be8:	0009883a 	mov	r4,zero
    1bec:	000031c0 	call	31c <IO_write>
    1bf0:	000b883a 	mov	r5,zero
    1bf4:	0009883a 	mov	r4,zero
    1bf8:	000031c0 	call	31c <IO_write>
    1bfc:	01414004 	movi	r5,1280
    1c00:	01006c04 	movi	r4,432
    1c04:	00011b80 	call	11b8 <UsbWrite>
    1c08:	0001883a 	nop
    1c0c:	e037883a 	mov	sp,fp
    1c10:	dfc00117 	ldw	ra,4(sp)
    1c14:	df000017 	ldw	fp,0(sp)
    1c18:	dec00204 	addi	sp,sp,8
    1c1c:	f800283a 	ret

00001c20 <UsbClassRequest>:
    1c20:	defffe04 	addi	sp,sp,-8
    1c24:	dfc00115 	stw	ra,4(sp)
    1c28:	df000015 	stw	fp,0(sp)
    1c2c:	d839883a 	mov	fp,sp
    1c30:	01414004 	movi	r5,1280
    1c34:	01000084 	movi	r4,2
    1c38:	000031c0 	call	31c <IO_write>
    1c3c:	01414304 	movi	r5,1292
    1c40:	0009883a 	mov	r4,zero
    1c44:	000031c0 	call	31c <IO_write>
    1c48:	01400204 	movi	r5,8
    1c4c:	0009883a 	mov	r4,zero
    1c50:	000031c0 	call	31c <IO_write>
    1c54:	0140b404 	movi	r5,720
    1c58:	0009883a 	mov	r4,zero
    1c5c:	000031c0 	call	31c <IO_write>
    1c60:	01400044 	movi	r5,1
    1c64:	0009883a 	mov	r4,zero
    1c68:	000031c0 	call	31c <IO_write>
    1c6c:	014004c4 	movi	r5,19
    1c70:	0009883a 	mov	r4,zero
    1c74:	000031c0 	call	31c <IO_write>
    1c78:	01414504 	movi	r5,1300
    1c7c:	0009883a 	mov	r4,zero
    1c80:	000031c0 	call	31c <IO_write>
    1c84:	01428844 	movi	r5,2593
    1c88:	0009883a 	mov	r4,zero
    1c8c:	000031c0 	call	31c <IO_write>
    1c90:	000b883a 	mov	r5,zero
    1c94:	0009883a 	mov	r4,zero
    1c98:	000031c0 	call	31c <IO_write>
    1c9c:	000b883a 	mov	r5,zero
    1ca0:	0009883a 	mov	r4,zero
    1ca4:	000031c0 	call	31c <IO_write>
    1ca8:	000b883a 	mov	r5,zero
    1cac:	0009883a 	mov	r4,zero
    1cb0:	000031c0 	call	31c <IO_write>
    1cb4:	000b883a 	mov	r5,zero
    1cb8:	0009883a 	mov	r4,zero
    1cbc:	000031c0 	call	31c <IO_write>
    1cc0:	000b883a 	mov	r5,zero
    1cc4:	0009883a 	mov	r4,zero
    1cc8:	000031c0 	call	31c <IO_write>
    1ccc:	0140a404 	movi	r5,656
    1cd0:	0009883a 	mov	r4,zero
    1cd4:	000031c0 	call	31c <IO_write>
    1cd8:	01401044 	movi	r5,65
    1cdc:	0009883a 	mov	r4,zero
    1ce0:	000031c0 	call	31c <IO_write>
    1ce4:	014004c4 	movi	r5,19
    1ce8:	0009883a 	mov	r4,zero
    1cec:	000031c0 	call	31c <IO_write>
    1cf0:	000b883a 	mov	r5,zero
    1cf4:	0009883a 	mov	r4,zero
    1cf8:	000031c0 	call	31c <IO_write>
    1cfc:	01414004 	movi	r5,1280
    1d00:	01006c04 	movi	r4,432
    1d04:	00011b80 	call	11b8 <UsbWrite>
    1d08:	0001883a 	nop
    1d0c:	e037883a 	mov	sp,fp
    1d10:	dfc00117 	ldw	ra,4(sp)
    1d14:	df000017 	ldw	fp,0(sp)
    1d18:	dec00204 	addi	sp,sp,8
    1d1c:	f800283a 	ret

00001d20 <UsbGetHidDesc>:
    1d20:	defffe04 	addi	sp,sp,-8
    1d24:	dfc00115 	stw	ra,4(sp)
    1d28:	df000015 	stw	fp,0(sp)
    1d2c:	d839883a 	mov	fp,sp
    1d30:	01414004 	movi	r5,1280
    1d34:	01000084 	movi	r4,2
    1d38:	000031c0 	call	31c <IO_write>
    1d3c:	01414304 	movi	r5,1292
    1d40:	0009883a 	mov	r4,zero
    1d44:	000031c0 	call	31c <IO_write>
    1d48:	01400204 	movi	r5,8
    1d4c:	0009883a 	mov	r4,zero
    1d50:	000031c0 	call	31c <IO_write>
    1d54:	0140b404 	movi	r5,720
    1d58:	0009883a 	mov	r4,zero
    1d5c:	000031c0 	call	31c <IO_write>
    1d60:	01400044 	movi	r5,1
    1d64:	0009883a 	mov	r4,zero
    1d68:	000031c0 	call	31c <IO_write>
    1d6c:	014004c4 	movi	r5,19
    1d70:	0009883a 	mov	r4,zero
    1d74:	000031c0 	call	31c <IO_write>
    1d78:	01414504 	movi	r5,1300
    1d7c:	0009883a 	mov	r4,zero
    1d80:	000031c0 	call	31c <IO_write>
    1d84:	0141a044 	movi	r5,1665
    1d88:	0009883a 	mov	r4,zero
    1d8c:	000031c0 	call	31c <IO_write>
    1d90:	01484004 	movi	r5,8448
    1d94:	0009883a 	mov	r4,zero
    1d98:	000031c0 	call	31c <IO_write>
    1d9c:	000b883a 	mov	r5,zero
    1da0:	0009883a 	mov	r4,zero
    1da4:	000031c0 	call	31c <IO_write>
    1da8:	01401ec4 	movi	r5,123
    1dac:	0009883a 	mov	r4,zero
    1db0:	000031c0 	call	31c <IO_write>
    1db4:	01415104 	movi	r5,1348
    1db8:	0009883a 	mov	r4,zero
    1dbc:	000031c0 	call	31c <IO_write>
    1dc0:	01400204 	movi	r5,8
    1dc4:	0009883a 	mov	r4,zero
    1dc8:	000031c0 	call	31c <IO_write>
    1dcc:	0140a404 	movi	r5,656
    1dd0:	0009883a 	mov	r4,zero
    1dd4:	000031c0 	call	31c <IO_write>
    1dd8:	01401044 	movi	r5,65
    1ddc:	0009883a 	mov	r4,zero
    1de0:	000031c0 	call	31c <IO_write>
    1de4:	014004c4 	movi	r5,19
    1de8:	0009883a 	mov	r4,zero
    1dec:	000031c0 	call	31c <IO_write>
    1df0:	01414804 	movi	r5,1312
    1df4:	0009883a 	mov	r4,zero
    1df8:	000031c0 	call	31c <IO_write>
    1dfc:	000b883a 	mov	r5,zero
    1e00:	0009883a 	mov	r4,zero
    1e04:	000031c0 	call	31c <IO_write>
    1e08:	000b883a 	mov	r5,zero
    1e0c:	0009883a 	mov	r4,zero
    1e10:	000031c0 	call	31c <IO_write>
    1e14:	01408404 	movi	r5,528
    1e18:	0009883a 	mov	r4,zero
    1e1c:	000031c0 	call	31c <IO_write>
    1e20:	01401044 	movi	r5,65
    1e24:	0009883a 	mov	r4,zero
    1e28:	000031c0 	call	31c <IO_write>
    1e2c:	014004c4 	movi	r5,19
    1e30:	0009883a 	mov	r4,zero
    1e34:	000031c0 	call	31c <IO_write>
    1e38:	000b883a 	mov	r5,zero
    1e3c:	0009883a 	mov	r4,zero
    1e40:	000031c0 	call	31c <IO_write>
    1e44:	01414004 	movi	r5,1280
    1e48:	01006c04 	movi	r4,432
    1e4c:	00011b80 	call	11b8 <UsbWrite>
    1e50:	0001883a 	nop
    1e54:	e037883a 	mov	sp,fp
    1e58:	dfc00117 	ldw	ra,4(sp)
    1e5c:	df000017 	ldw	fp,0(sp)
    1e60:	dec00204 	addi	sp,sp,8
    1e64:	f800283a 	ret

00001e68 <UsbGetReportDesc>:
    1e68:	defffe04 	addi	sp,sp,-8
    1e6c:	dfc00115 	stw	ra,4(sp)
    1e70:	df000015 	stw	fp,0(sp)
    1e74:	d839883a 	mov	fp,sp
    1e78:	01414004 	movi	r5,1280
    1e7c:	01000084 	movi	r4,2
    1e80:	000031c0 	call	31c <IO_write>
    1e84:	01414304 	movi	r5,1292
    1e88:	0009883a 	mov	r4,zero
    1e8c:	000031c0 	call	31c <IO_write>
    1e90:	01400204 	movi	r5,8
    1e94:	0009883a 	mov	r4,zero
    1e98:	000031c0 	call	31c <IO_write>
    1e9c:	0140b404 	movi	r5,720
    1ea0:	0009883a 	mov	r4,zero
    1ea4:	000031c0 	call	31c <IO_write>
    1ea8:	01400044 	movi	r5,1
    1eac:	0009883a 	mov	r4,zero
    1eb0:	000031c0 	call	31c <IO_write>
    1eb4:	014004c4 	movi	r5,19
    1eb8:	0009883a 	mov	r4,zero
    1ebc:	000031c0 	call	31c <IO_write>
    1ec0:	01414504 	movi	r5,1300
    1ec4:	0009883a 	mov	r4,zero
    1ec8:	000031c0 	call	31c <IO_write>
    1ecc:	0141a044 	movi	r5,1665
    1ed0:	0009883a 	mov	r4,zero
    1ed4:	000031c0 	call	31c <IO_write>
    1ed8:	01488004 	movi	r5,8704
    1edc:	0009883a 	mov	r4,zero
    1ee0:	000031c0 	call	31c <IO_write>
    1ee4:	000b883a 	mov	r5,zero
    1ee8:	0009883a 	mov	r4,zero
    1eec:	000031c0 	call	31c <IO_write>
    1ef0:	01401ec4 	movi	r5,123
    1ef4:	0009883a 	mov	r4,zero
    1ef8:	000031c0 	call	31c <IO_write>
    1efc:	01416004 	movi	r5,1408
    1f00:	0009883a 	mov	r4,zero
    1f04:	000031c0 	call	31c <IO_write>
    1f08:	01400204 	movi	r5,8
    1f0c:	0009883a 	mov	r4,zero
    1f10:	000031c0 	call	31c <IO_write>
    1f14:	0140a404 	movi	r5,656
    1f18:	0009883a 	mov	r4,zero
    1f1c:	000031c0 	call	31c <IO_write>
    1f20:	01401044 	movi	r5,65
    1f24:	0009883a 	mov	r4,zero
    1f28:	000031c0 	call	31c <IO_write>
    1f2c:	014004c4 	movi	r5,19
    1f30:	0009883a 	mov	r4,zero
    1f34:	000031c0 	call	31c <IO_write>
    1f38:	01414804 	movi	r5,1312
    1f3c:	0009883a 	mov	r4,zero
    1f40:	000031c0 	call	31c <IO_write>
    1f44:	01416204 	movi	r5,1416
    1f48:	0009883a 	mov	r4,zero
    1f4c:	000031c0 	call	31c <IO_write>
    1f50:	01400204 	movi	r5,8
    1f54:	0009883a 	mov	r4,zero
    1f58:	000031c0 	call	31c <IO_write>
    1f5c:	0140a404 	movi	r5,656
    1f60:	0009883a 	mov	r4,zero
    1f64:	000031c0 	call	31c <IO_write>
    1f68:	01400044 	movi	r5,1
    1f6c:	0009883a 	mov	r4,zero
    1f70:	000031c0 	call	31c <IO_write>
    1f74:	014004c4 	movi	r5,19
    1f78:	0009883a 	mov	r4,zero
    1f7c:	000031c0 	call	31c <IO_write>
    1f80:	01414b04 	movi	r5,1324
    1f84:	0009883a 	mov	r4,zero
    1f88:	000031c0 	call	31c <IO_write>
    1f8c:	01416404 	movi	r5,1424
    1f90:	0009883a 	mov	r4,zero
    1f94:	000031c0 	call	31c <IO_write>
    1f98:	01400204 	movi	r5,8
    1f9c:	0009883a 	mov	r4,zero
    1fa0:	000031c0 	call	31c <IO_write>
    1fa4:	0140a404 	movi	r5,656
    1fa8:	0009883a 	mov	r4,zero
    1fac:	000031c0 	call	31c <IO_write>
    1fb0:	01401044 	movi	r5,65
    1fb4:	0009883a 	mov	r4,zero
    1fb8:	000031c0 	call	31c <IO_write>
    1fbc:	014004c4 	movi	r5,19
    1fc0:	0009883a 	mov	r4,zero
    1fc4:	000031c0 	call	31c <IO_write>
    1fc8:	01414e04 	movi	r5,1336
    1fcc:	0009883a 	mov	r4,zero
    1fd0:	000031c0 	call	31c <IO_write>
    1fd4:	01416604 	movi	r5,1432
    1fd8:	0009883a 	mov	r4,zero
    1fdc:	000031c0 	call	31c <IO_write>
    1fe0:	01400204 	movi	r5,8
    1fe4:	0009883a 	mov	r4,zero
    1fe8:	000031c0 	call	31c <IO_write>
    1fec:	0140a404 	movi	r5,656
    1ff0:	0009883a 	mov	r4,zero
    1ff4:	000031c0 	call	31c <IO_write>
    1ff8:	01400044 	movi	r5,1
    1ffc:	0009883a 	mov	r4,zero
    2000:	000031c0 	call	31c <IO_write>
    2004:	014004c4 	movi	r5,19
    2008:	0009883a 	mov	r4,zero
    200c:	000031c0 	call	31c <IO_write>
    2010:	01415104 	movi	r5,1348
    2014:	0009883a 	mov	r4,zero
    2018:	000031c0 	call	31c <IO_write>
    201c:	01416804 	movi	r5,1440
    2020:	0009883a 	mov	r4,zero
    2024:	000031c0 	call	31c <IO_write>
    2028:	01400204 	movi	r5,8
    202c:	0009883a 	mov	r4,zero
    2030:	000031c0 	call	31c <IO_write>
    2034:	0140a404 	movi	r5,656
    2038:	0009883a 	mov	r4,zero
    203c:	000031c0 	call	31c <IO_write>
    2040:	01401044 	movi	r5,65
    2044:	0009883a 	mov	r4,zero
    2048:	000031c0 	call	31c <IO_write>
    204c:	014004c4 	movi	r5,19
    2050:	0009883a 	mov	r4,zero
    2054:	000031c0 	call	31c <IO_write>
    2058:	01415404 	movi	r5,1360
    205c:	0009883a 	mov	r4,zero
    2060:	000031c0 	call	31c <IO_write>
    2064:	01416a04 	movi	r5,1448
    2068:	0009883a 	mov	r4,zero
    206c:	000031c0 	call	31c <IO_write>
    2070:	01400204 	movi	r5,8
    2074:	0009883a 	mov	r4,zero
    2078:	000031c0 	call	31c <IO_write>
    207c:	0140a404 	movi	r5,656
    2080:	0009883a 	mov	r4,zero
    2084:	000031c0 	call	31c <IO_write>
    2088:	01400044 	movi	r5,1
    208c:	0009883a 	mov	r4,zero
    2090:	000031c0 	call	31c <IO_write>
    2094:	014004c4 	movi	r5,19
    2098:	0009883a 	mov	r4,zero
    209c:	000031c0 	call	31c <IO_write>
    20a0:	01415704 	movi	r5,1372
    20a4:	0009883a 	mov	r4,zero
    20a8:	000031c0 	call	31c <IO_write>
    20ac:	01416c04 	movi	r5,1456
    20b0:	0009883a 	mov	r4,zero
    20b4:	000031c0 	call	31c <IO_write>
    20b8:	01400204 	movi	r5,8
    20bc:	0009883a 	mov	r4,zero
    20c0:	000031c0 	call	31c <IO_write>
    20c4:	0140a404 	movi	r5,656
    20c8:	0009883a 	mov	r4,zero
    20cc:	000031c0 	call	31c <IO_write>
    20d0:	01401044 	movi	r5,65
    20d4:	0009883a 	mov	r4,zero
    20d8:	000031c0 	call	31c <IO_write>
    20dc:	014004c4 	movi	r5,19
    20e0:	0009883a 	mov	r4,zero
    20e4:	000031c0 	call	31c <IO_write>
    20e8:	01415a04 	movi	r5,1384
    20ec:	0009883a 	mov	r4,zero
    20f0:	000031c0 	call	31c <IO_write>
    20f4:	01416e04 	movi	r5,1464
    20f8:	0009883a 	mov	r4,zero
    20fc:	000031c0 	call	31c <IO_write>
    2100:	014000c4 	movi	r5,3
    2104:	0009883a 	mov	r4,zero
    2108:	000031c0 	call	31c <IO_write>
    210c:	0140a404 	movi	r5,656
    2110:	0009883a 	mov	r4,zero
    2114:	000031c0 	call	31c <IO_write>
    2118:	01400044 	movi	r5,1
    211c:	0009883a 	mov	r4,zero
    2120:	000031c0 	call	31c <IO_write>
    2124:	014004c4 	movi	r5,19
    2128:	0009883a 	mov	r4,zero
    212c:	000031c0 	call	31c <IO_write>
    2130:	01415d04 	movi	r5,1396
    2134:	0009883a 	mov	r4,zero
    2138:	000031c0 	call	31c <IO_write>
    213c:	000b883a 	mov	r5,zero
    2140:	0009883a 	mov	r4,zero
    2144:	000031c0 	call	31c <IO_write>
    2148:	000b883a 	mov	r5,zero
    214c:	0009883a 	mov	r4,zero
    2150:	000031c0 	call	31c <IO_write>
    2154:	01408404 	movi	r5,528
    2158:	0009883a 	mov	r4,zero
    215c:	000031c0 	call	31c <IO_write>
    2160:	01401044 	movi	r5,65
    2164:	0009883a 	mov	r4,zero
    2168:	000031c0 	call	31c <IO_write>
    216c:	014004c4 	movi	r5,19
    2170:	0009883a 	mov	r4,zero
    2174:	000031c0 	call	31c <IO_write>
    2178:	000b883a 	mov	r5,zero
    217c:	0009883a 	mov	r4,zero
    2180:	000031c0 	call	31c <IO_write>
    2184:	01414004 	movi	r5,1280
    2188:	01006c04 	movi	r4,432
    218c:	00011b80 	call	11b8 <UsbWrite>
    2190:	0001883a 	nop
    2194:	e037883a 	mov	sp,fp
    2198:	dfc00117 	ldw	ra,4(sp)
    219c:	df000017 	ldw	fp,0(sp)
    21a0:	dec00204 	addi	sp,sp,8
    21a4:	f800283a 	ret

000021a8 <UsbWaitTDListDone>:
    21a8:	defffd04 	addi	sp,sp,-12
    21ac:	dfc00215 	stw	ra,8(sp)
    21b0:	df000115 	stw	fp,4(sp)
    21b4:	df000104 	addi	fp,sp,4
    21b8:	01005104 	movi	r4,324
    21bc:	00012100 	call	1210 <UsbRead>
    21c0:	e0bfff0d 	sth	r2,-4(fp)
    21c4:	000b883a 	mov	r5,zero
    21c8:	01005104 	movi	r4,324
    21cc:	00011b80 	call	11b8 <UsbWrite>
    21d0:	00000d06 	br	2208 <UsbWaitTDListDone+0x60>
    21d4:	e0bfff0b 	ldhu	r2,-4(fp)
    21d8:	10000526 	beq	r2,zero,21f0 <UsbWaitTDListDone+0x48>
    21dc:	e0bfff0b 	ldhu	r2,-4(fp)
    21e0:	100b883a 	mov	r5,r2
    21e4:	01000074 	movhi	r4,1
    21e8:	21087904 	addi	r4,r4,8676
    21ec:	000235c0 	call	235c <printf>
    21f0:	01005104 	movi	r4,324
    21f4:	00012100 	call	1210 <UsbRead>
    21f8:	e0bfff0d 	sth	r2,-4(fp)
    21fc:	000b883a 	mov	r5,zero
    2200:	01005104 	movi	r4,324
    2204:	00011b80 	call	11b8 <UsbWrite>
    2208:	e0bfff0b 	ldhu	r2,-4(fp)
    220c:	10840018 	cmpnei	r2,r2,4096
    2210:	103ff01e 	bne	r2,zero,21d4 <__alt_mem_onchip_memory2_0+0xf8001134>
    2214:	e0bfff0b 	ldhu	r2,-4(fp)
    2218:	e037883a 	mov	sp,fp
    221c:	dfc00117 	ldw	ra,4(sp)
    2220:	df000017 	ldw	fp,0(sp)
    2224:	dec00204 	addi	sp,sp,8
    2228:	f800283a 	ret

0000222c <UsbGetRetryCnt>:
    222c:	defffd04 	addi	sp,sp,-12
    2230:	dfc00215 	stw	ra,8(sp)
    2234:	df000115 	stw	fp,4(sp)
    2238:	df000104 	addi	fp,sp,4
    223c:	010000c4 	movi	r4,3
    2240:	00003a40 	call	3a4 <IO_read>
    2244:	01005104 	movi	r4,324
    2248:	00012100 	call	1210 <UsbRead>
    224c:	10bfffcc 	andi	r2,r2,65535
    2250:	10840018 	cmpnei	r2,r2,4096
    2254:	1000091e 	bne	r2,zero,227c <UsbGetRetryCnt+0x50>
    2258:	000b883a 	mov	r5,zero
    225c:	01005104 	movi	r4,324
    2260:	00011b80 	call	11b8 <UsbWrite>
    2264:	0001883a 	nop
    2268:	010000c4 	movi	r4,3
    226c:	00003a40 	call	3a4 <IO_read>
    2270:	10bfffcc 	andi	r2,r2,65535
    2274:	1080040c 	andi	r2,r2,16
    2278:	103ffb26 	beq	r2,zero,2268 <__alt_mem_onchip_memory2_0+0xf80011c8>
    227c:	01414204 	movi	r5,1288
    2280:	01000084 	movi	r4,2
    2284:	000031c0 	call	31c <IO_write>
    2288:	0009883a 	mov	r4,zero
    228c:	00003a40 	call	3a4 <IO_read>
    2290:	e0bfff0d 	sth	r2,-4(fp)
    2294:	e0bfff0b 	ldhu	r2,-4(fp)
    2298:	e037883a 	mov	sp,fp
    229c:	dfc00117 	ldw	ra,4(sp)
    22a0:	df000017 	ldw	fp,0(sp)
    22a4:	dec00204 	addi	sp,sp,8
    22a8:	f800283a 	ret

000022ac <UsbPrintMem>:
    22ac:	defffc04 	addi	sp,sp,-16
    22b0:	dfc00315 	stw	ra,12(sp)
    22b4:	df000215 	stw	fp,8(sp)
    22b8:	df000204 	addi	fp,sp,8
    22bc:	01414004 	movi	r5,1280
    22c0:	01000084 	movi	r4,2
    22c4:	000031c0 	call	31c <IO_write>
    22c8:	e03ffe15 	stw	zero,-8(fp)
    22cc:	00000e06 	br	2308 <UsbPrintMem+0x5c>
    22d0:	0009883a 	mov	r4,zero
    22d4:	00003a40 	call	3a4 <IO_read>
    22d8:	10bfffcc 	andi	r2,r2,65535
    22dc:	e0bfff15 	stw	r2,-4(fp)
    22e0:	e0bffe17 	ldw	r2,-8(fp)
    22e4:	10814004 	addi	r2,r2,1280
    22e8:	e1bfff17 	ldw	r6,-4(fp)
    22ec:	100b883a 	mov	r5,r2
    22f0:	01000074 	movhi	r4,1
    22f4:	21088104 	addi	r4,r4,8708
    22f8:	000235c0 	call	235c <printf>
    22fc:	e0bffe17 	ldw	r2,-8(fp)
    2300:	10800084 	addi	r2,r2,2
    2304:	e0bffe15 	stw	r2,-8(fp)
    2308:	e0bffe17 	ldw	r2,-8(fp)
    230c:	10803250 	cmplti	r2,r2,201
    2310:	103fef1e 	bne	r2,zero,22d0 <__alt_mem_onchip_memory2_0+0xf8001230>
    2314:	0001883a 	nop
    2318:	e037883a 	mov	sp,fp
    231c:	dfc00117 	ldw	ra,4(sp)
    2320:	df000017 	ldw	fp,0(sp)
    2324:	dec00204 	addi	sp,sp,8
    2328:	f800283a 	ret

0000232c <_printf_r>:
    232c:	defffd04 	addi	sp,sp,-12
    2330:	2805883a 	mov	r2,r5
    2334:	dfc00015 	stw	ra,0(sp)
    2338:	d9800115 	stw	r6,4(sp)
    233c:	d9c00215 	stw	r7,8(sp)
    2340:	21400217 	ldw	r5,8(r4)
    2344:	d9c00104 	addi	r7,sp,4
    2348:	100d883a 	mov	r6,r2
    234c:	00025040 	call	2504 <___vfprintf_internal_r>
    2350:	dfc00017 	ldw	ra,0(sp)
    2354:	dec00304 	addi	sp,sp,12
    2358:	f800283a 	ret

0000235c <printf>:
    235c:	defffc04 	addi	sp,sp,-16
    2360:	dfc00015 	stw	ra,0(sp)
    2364:	d9400115 	stw	r5,4(sp)
    2368:	d9800215 	stw	r6,8(sp)
    236c:	d9c00315 	stw	r7,12(sp)
    2370:	00800074 	movhi	r2,1
    2374:	108ff204 	addi	r2,r2,16328
    2378:	10800017 	ldw	r2,0(r2)
    237c:	200b883a 	mov	r5,r4
    2380:	d9800104 	addi	r6,sp,4
    2384:	11000217 	ldw	r4,8(r2)
    2388:	00047e00 	call	47e0 <__vfprintf_internal>
    238c:	dfc00017 	ldw	ra,0(sp)
    2390:	dec00404 	addi	sp,sp,16
    2394:	f800283a 	ret

00002398 <_puts_r>:
    2398:	defff604 	addi	sp,sp,-40
    239c:	dc000715 	stw	r16,28(sp)
    23a0:	2021883a 	mov	r16,r4
    23a4:	2809883a 	mov	r4,r5
    23a8:	dc400815 	stw	r17,32(sp)
    23ac:	dfc00915 	stw	ra,36(sp)
    23b0:	2823883a 	mov	r17,r5
    23b4:	000246c0 	call	246c <strlen>
    23b8:	10c00044 	addi	r3,r2,1
    23bc:	d8800115 	stw	r2,4(sp)
    23c0:	00800074 	movhi	r2,1
    23c4:	10888604 	addi	r2,r2,8728
    23c8:	d8800215 	stw	r2,8(sp)
    23cc:	00800044 	movi	r2,1
    23d0:	d8800315 	stw	r2,12(sp)
    23d4:	00800084 	movi	r2,2
    23d8:	dc400015 	stw	r17,0(sp)
    23dc:	d8c00615 	stw	r3,24(sp)
    23e0:	dec00415 	stw	sp,16(sp)
    23e4:	d8800515 	stw	r2,20(sp)
    23e8:	80000226 	beq	r16,zero,23f4 <_puts_r+0x5c>
    23ec:	80800e17 	ldw	r2,56(r16)
    23f0:	10001426 	beq	r2,zero,2444 <_puts_r+0xac>
    23f4:	81400217 	ldw	r5,8(r16)
    23f8:	2880030b 	ldhu	r2,12(r5)
    23fc:	10c8000c 	andi	r3,r2,8192
    2400:	1800061e 	bne	r3,zero,241c <_puts_r+0x84>
    2404:	29001917 	ldw	r4,100(r5)
    2408:	00f7ffc4 	movi	r3,-8193
    240c:	10880014 	ori	r2,r2,8192
    2410:	20c6703a 	and	r3,r4,r3
    2414:	2880030d 	sth	r2,12(r5)
    2418:	28c01915 	stw	r3,100(r5)
    241c:	d9800404 	addi	r6,sp,16
    2420:	8009883a 	mov	r4,r16
    2424:	0006d480 	call	6d48 <__sfvwrite_r>
    2428:	1000091e 	bne	r2,zero,2450 <_puts_r+0xb8>
    242c:	00800284 	movi	r2,10
    2430:	dfc00917 	ldw	ra,36(sp)
    2434:	dc400817 	ldw	r17,32(sp)
    2438:	dc000717 	ldw	r16,28(sp)
    243c:	dec00a04 	addi	sp,sp,40
    2440:	f800283a 	ret
    2444:	8009883a 	mov	r4,r16
    2448:	00068c40 	call	68c4 <__sinit>
    244c:	003fe906 	br	23f4 <__alt_mem_onchip_memory2_0+0xf8001354>
    2450:	00bfffc4 	movi	r2,-1
    2454:	003ff606 	br	2430 <__alt_mem_onchip_memory2_0+0xf8001390>

00002458 <puts>:
    2458:	00800074 	movhi	r2,1
    245c:	108ff204 	addi	r2,r2,16328
    2460:	200b883a 	mov	r5,r4
    2464:	11000017 	ldw	r4,0(r2)
    2468:	00023981 	jmpi	2398 <_puts_r>

0000246c <strlen>:
    246c:	208000cc 	andi	r2,r4,3
    2470:	10002026 	beq	r2,zero,24f4 <strlen+0x88>
    2474:	20800007 	ldb	r2,0(r4)
    2478:	10002026 	beq	r2,zero,24fc <strlen+0x90>
    247c:	2005883a 	mov	r2,r4
    2480:	00000206 	br	248c <strlen+0x20>
    2484:	10c00007 	ldb	r3,0(r2)
    2488:	18001826 	beq	r3,zero,24ec <strlen+0x80>
    248c:	10800044 	addi	r2,r2,1
    2490:	10c000cc 	andi	r3,r2,3
    2494:	183ffb1e 	bne	r3,zero,2484 <__alt_mem_onchip_memory2_0+0xf80013e4>
    2498:	10c00017 	ldw	r3,0(r2)
    249c:	01ffbff4 	movhi	r7,65279
    24a0:	39ffbfc4 	addi	r7,r7,-257
    24a4:	00ca303a 	nor	r5,zero,r3
    24a8:	01a02074 	movhi	r6,32897
    24ac:	19c7883a 	add	r3,r3,r7
    24b0:	31a02004 	addi	r6,r6,-32640
    24b4:	1946703a 	and	r3,r3,r5
    24b8:	1986703a 	and	r3,r3,r6
    24bc:	1800091e 	bne	r3,zero,24e4 <strlen+0x78>
    24c0:	10800104 	addi	r2,r2,4
    24c4:	10c00017 	ldw	r3,0(r2)
    24c8:	19cb883a 	add	r5,r3,r7
    24cc:	00c6303a 	nor	r3,zero,r3
    24d0:	28c6703a 	and	r3,r5,r3
    24d4:	1986703a 	and	r3,r3,r6
    24d8:	183ff926 	beq	r3,zero,24c0 <__alt_mem_onchip_memory2_0+0xf8001420>
    24dc:	00000106 	br	24e4 <strlen+0x78>
    24e0:	10800044 	addi	r2,r2,1
    24e4:	10c00007 	ldb	r3,0(r2)
    24e8:	183ffd1e 	bne	r3,zero,24e0 <__alt_mem_onchip_memory2_0+0xf8001440>
    24ec:	1105c83a 	sub	r2,r2,r4
    24f0:	f800283a 	ret
    24f4:	2005883a 	mov	r2,r4
    24f8:	003fe706 	br	2498 <__alt_mem_onchip_memory2_0+0xf80013f8>
    24fc:	0005883a 	mov	r2,zero
    2500:	f800283a 	ret

00002504 <___vfprintf_internal_r>:
    2504:	deffb804 	addi	sp,sp,-288
    2508:	dfc04715 	stw	ra,284(sp)
    250c:	ddc04515 	stw	r23,276(sp)
    2510:	dd404315 	stw	r21,268(sp)
    2514:	d9002d15 	stw	r4,180(sp)
    2518:	282f883a 	mov	r23,r5
    251c:	302b883a 	mov	r21,r6
    2520:	d9c02e15 	stw	r7,184(sp)
    2524:	df004615 	stw	fp,280(sp)
    2528:	dd804415 	stw	r22,272(sp)
    252c:	dd004215 	stw	r20,264(sp)
    2530:	dcc04115 	stw	r19,260(sp)
    2534:	dc804015 	stw	r18,256(sp)
    2538:	dc403f15 	stw	r17,252(sp)
    253c:	dc003e15 	stw	r16,248(sp)
    2540:	00074440 	call	7444 <_localeconv_r>
    2544:	10800017 	ldw	r2,0(r2)
    2548:	1009883a 	mov	r4,r2
    254c:	d8803415 	stw	r2,208(sp)
    2550:	000246c0 	call	246c <strlen>
    2554:	d8803715 	stw	r2,220(sp)
    2558:	d8802d17 	ldw	r2,180(sp)
    255c:	10000226 	beq	r2,zero,2568 <___vfprintf_internal_r+0x64>
    2560:	10800e17 	ldw	r2,56(r2)
    2564:	1000fb26 	beq	r2,zero,2954 <___vfprintf_internal_r+0x450>
    2568:	b880030b 	ldhu	r2,12(r23)
    256c:	10c8000c 	andi	r3,r2,8192
    2570:	1800061e 	bne	r3,zero,258c <___vfprintf_internal_r+0x88>
    2574:	b9001917 	ldw	r4,100(r23)
    2578:	00f7ffc4 	movi	r3,-8193
    257c:	10880014 	ori	r2,r2,8192
    2580:	20c6703a 	and	r3,r4,r3
    2584:	b880030d 	sth	r2,12(r23)
    2588:	b8c01915 	stw	r3,100(r23)
    258c:	10c0020c 	andi	r3,r2,8
    2590:	1800c326 	beq	r3,zero,28a0 <___vfprintf_internal_r+0x39c>
    2594:	b8c00417 	ldw	r3,16(r23)
    2598:	1800c126 	beq	r3,zero,28a0 <___vfprintf_internal_r+0x39c>
    259c:	1080068c 	andi	r2,r2,26
    25a0:	00c00284 	movi	r3,10
    25a4:	10c0c626 	beq	r2,r3,28c0 <___vfprintf_internal_r+0x3bc>
    25a8:	d8c00404 	addi	r3,sp,16
    25ac:	05000074 	movhi	r20,1
    25b0:	d9001e04 	addi	r4,sp,120
    25b4:	a5089784 	addi	r20,r20,8798
    25b8:	d8c01e15 	stw	r3,120(sp)
    25bc:	d8002015 	stw	zero,128(sp)
    25c0:	d8001f15 	stw	zero,124(sp)
    25c4:	d8003315 	stw	zero,204(sp)
    25c8:	d8003615 	stw	zero,216(sp)
    25cc:	d8003815 	stw	zero,224(sp)
    25d0:	1811883a 	mov	r8,r3
    25d4:	d8003915 	stw	zero,228(sp)
    25d8:	d8003a15 	stw	zero,232(sp)
    25dc:	d8002f15 	stw	zero,188(sp)
    25e0:	d9002815 	stw	r4,160(sp)
    25e4:	a8800007 	ldb	r2,0(r21)
    25e8:	10028b26 	beq	r2,zero,3018 <___vfprintf_internal_r+0xb14>
    25ec:	00c00944 	movi	r3,37
    25f0:	a823883a 	mov	r17,r21
    25f4:	10c0021e 	bne	r2,r3,2600 <___vfprintf_internal_r+0xfc>
    25f8:	00001406 	br	264c <___vfprintf_internal_r+0x148>
    25fc:	10c00326 	beq	r2,r3,260c <___vfprintf_internal_r+0x108>
    2600:	8c400044 	addi	r17,r17,1
    2604:	88800007 	ldb	r2,0(r17)
    2608:	103ffc1e 	bne	r2,zero,25fc <__alt_mem_onchip_memory2_0+0xf800155c>
    260c:	8d61c83a 	sub	r16,r17,r21
    2610:	80000e26 	beq	r16,zero,264c <___vfprintf_internal_r+0x148>
    2614:	d8c02017 	ldw	r3,128(sp)
    2618:	d8801f17 	ldw	r2,124(sp)
    261c:	45400015 	stw	r21,0(r8)
    2620:	1c07883a 	add	r3,r3,r16
    2624:	10800044 	addi	r2,r2,1
    2628:	d8c02015 	stw	r3,128(sp)
    262c:	44000115 	stw	r16,4(r8)
    2630:	d8801f15 	stw	r2,124(sp)
    2634:	00c001c4 	movi	r3,7
    2638:	1880a916 	blt	r3,r2,28e0 <___vfprintf_internal_r+0x3dc>
    263c:	42000204 	addi	r8,r8,8
    2640:	d9402f17 	ldw	r5,188(sp)
    2644:	2c0b883a 	add	r5,r5,r16
    2648:	d9402f15 	stw	r5,188(sp)
    264c:	88800007 	ldb	r2,0(r17)
    2650:	1000aa26 	beq	r2,zero,28fc <___vfprintf_internal_r+0x3f8>
    2654:	8d400044 	addi	r21,r17,1
    2658:	8c400047 	ldb	r17,1(r17)
    265c:	0021883a 	mov	r16,zero
    2660:	00bfffc4 	movi	r2,-1
    2664:	0025883a 	mov	r18,zero
    2668:	dc002905 	stb	r16,164(sp)
    266c:	d8002785 	stb	zero,158(sp)
    2670:	d8002b05 	stb	zero,172(sp)
    2674:	d8802a15 	stw	r2,168(sp)
    2678:	d8003115 	stw	zero,196(sp)
    267c:	04c01604 	movi	r19,88
    2680:	05800244 	movi	r22,9
    2684:	9021883a 	mov	r16,r18
    2688:	4039883a 	mov	fp,r8
    268c:	ad400044 	addi	r21,r21,1
    2690:	88bff804 	addi	r2,r17,-32
    2694:	98833236 	bltu	r19,r2,3360 <___vfprintf_internal_r+0xe5c>
    2698:	100490ba 	slli	r2,r2,2
    269c:	00c00034 	movhi	r3,0
    26a0:	18c9ac04 	addi	r3,r3,9904
    26a4:	10c5883a 	add	r2,r2,r3
    26a8:	10800017 	ldw	r2,0(r2)
    26ac:	1000683a 	jmp	r2
    26b0:	00003258 	cmpnei	zero,zero,201
    26b4:	00003360 	cmpeqi	zero,zero,205
    26b8:	00003360 	cmpeqi	zero,zero,205
    26bc:	00003278 	rdprs	zero,zero,201
    26c0:	00003360 	cmpeqi	zero,zero,205
    26c4:	00003360 	cmpeqi	zero,zero,205
    26c8:	00003360 	cmpeqi	zero,zero,205
    26cc:	00003360 	cmpeqi	zero,zero,205
    26d0:	00003360 	cmpeqi	zero,zero,205
    26d4:	00003360 	cmpeqi	zero,zero,205
    26d8:	00002960 	cmpeqi	zero,zero,165
    26dc:	00003168 	cmpgeui	zero,zero,197
    26e0:	00003360 	cmpeqi	zero,zero,205
    26e4:	00002824 	muli	zero,zero,160
    26e8:	00002984 	movi	zero,166
    26ec:	00003360 	cmpeqi	zero,zero,205
    26f0:	000029d4 	movui	zero,167
    26f4:	000029e0 	cmpeqi	zero,zero,167
    26f8:	000029e0 	cmpeqi	zero,zero,167
    26fc:	000029e0 	cmpeqi	zero,zero,167
    2700:	000029e0 	cmpeqi	zero,zero,167
    2704:	000029e0 	cmpeqi	zero,zero,167
    2708:	000029e0 	cmpeqi	zero,zero,167
    270c:	000029e0 	cmpeqi	zero,zero,167
    2710:	000029e0 	cmpeqi	zero,zero,167
    2714:	000029e0 	cmpeqi	zero,zero,167
    2718:	00003360 	cmpeqi	zero,zero,205
    271c:	00003360 	cmpeqi	zero,zero,205
    2720:	00003360 	cmpeqi	zero,zero,205
    2724:	00003360 	cmpeqi	zero,zero,205
    2728:	00003360 	cmpeqi	zero,zero,205
    272c:	00003360 	cmpeqi	zero,zero,205
    2730:	00003360 	cmpeqi	zero,zero,205
    2734:	00003360 	cmpeqi	zero,zero,205
    2738:	00003360 	cmpeqi	zero,zero,205
    273c:	00003360 	cmpeqi	zero,zero,205
    2740:	00002a1c 	xori	zero,zero,168
    2744:	00002ae4 	muli	zero,zero,171
    2748:	00003360 	cmpeqi	zero,zero,205
    274c:	00002ae4 	muli	zero,zero,171
    2750:	00003360 	cmpeqi	zero,zero,205
    2754:	00003360 	cmpeqi	zero,zero,205
    2758:	00003360 	cmpeqi	zero,zero,205
    275c:	00003360 	cmpeqi	zero,zero,205
    2760:	00002b90 	cmplti	zero,zero,174
    2764:	00003360 	cmpeqi	zero,zero,205
    2768:	00003360 	cmpeqi	zero,zero,205
    276c:	00002b9c 	xori	zero,zero,174
    2770:	00003360 	cmpeqi	zero,zero,205
    2774:	00003360 	cmpeqi	zero,zero,205
    2778:	00003360 	cmpeqi	zero,zero,205
    277c:	00003360 	cmpeqi	zero,zero,205
    2780:	00003360 	cmpeqi	zero,zero,205
    2784:	00003020 	cmpeqi	zero,zero,192
    2788:	00003360 	cmpeqi	zero,zero,205
    278c:	00003360 	cmpeqi	zero,zero,205
    2790:	0000308c 	andi	zero,zero,194
    2794:	00003360 	cmpeqi	zero,zero,205
    2798:	00003360 	cmpeqi	zero,zero,205
    279c:	00003360 	cmpeqi	zero,zero,205
    27a0:	00003360 	cmpeqi	zero,zero,205
    27a4:	00003360 	cmpeqi	zero,zero,205
    27a8:	00003360 	cmpeqi	zero,zero,205
    27ac:	00003360 	cmpeqi	zero,zero,205
    27b0:	00003360 	cmpeqi	zero,zero,205
    27b4:	00003360 	cmpeqi	zero,zero,205
    27b8:	00003360 	cmpeqi	zero,zero,205
    27bc:	00003304 	movi	zero,204
    27c0:	00003284 	movi	zero,202
    27c4:	00002ae4 	muli	zero,zero,171
    27c8:	00002ae4 	muli	zero,zero,171
    27cc:	00002ae4 	muli	zero,zero,171
    27d0:	000032a4 	muli	zero,zero,202
    27d4:	00003284 	movi	zero,202
    27d8:	00003360 	cmpeqi	zero,zero,205
    27dc:	00003360 	cmpeqi	zero,zero,205
    27e0:	000032b0 	cmpltui	zero,zero,202
    27e4:	00003360 	cmpeqi	zero,zero,205
    27e8:	000032c4 	movi	zero,203
    27ec:	00003148 	cmpgei	zero,zero,197
    27f0:	00002830 	cmpltui	zero,zero,160
    27f4:	00003180 	call	318 <IO_init+0xac>
    27f8:	00003360 	cmpeqi	zero,zero,205
    27fc:	0000318c 	andi	zero,zero,198
    2800:	00003360 	cmpeqi	zero,zero,205
    2804:	000031f0 	cmpltui	zero,zero,199
    2808:	00003360 	cmpeqi	zero,zero,205
    280c:	00003360 	cmpeqi	zero,zero,205
    2810:	00003210 	cmplti	zero,zero,200
    2814:	d8c03117 	ldw	r3,196(sp)
    2818:	d8802e15 	stw	r2,184(sp)
    281c:	00c7c83a 	sub	r3,zero,r3
    2820:	d8c03115 	stw	r3,196(sp)
    2824:	84000114 	ori	r16,r16,4
    2828:	ac400007 	ldb	r17,0(r21)
    282c:	003f9706 	br	268c <__alt_mem_onchip_memory2_0+0xf80015ec>
    2830:	00800c04 	movi	r2,48
    2834:	d8802705 	stb	r2,156(sp)
    2838:	00801e04 	movi	r2,120
    283c:	d8802745 	stb	r2,157(sp)
    2840:	d9002a17 	ldw	r4,168(sp)
    2844:	d8802e17 	ldw	r2,184(sp)
    2848:	d8002785 	stb	zero,158(sp)
    284c:	e011883a 	mov	r8,fp
    2850:	10c00104 	addi	r3,r2,4
    2854:	14c00017 	ldw	r19,0(r2)
    2858:	002d883a 	mov	r22,zero
    285c:	80800094 	ori	r2,r16,2
    2860:	2002ca16 	blt	r4,zero,338c <___vfprintf_internal_r+0xe88>
    2864:	00bfdfc4 	movi	r2,-129
    2868:	80a4703a 	and	r18,r16,r2
    286c:	d8c02e15 	stw	r3,184(sp)
    2870:	94800094 	ori	r18,r18,2
    2874:	9802b41e 	bne	r19,zero,3348 <___vfprintf_internal_r+0xe44>
    2878:	01400074 	movhi	r5,1
    287c:	29489004 	addi	r5,r5,8768
    2880:	d9403915 	stw	r5,228(sp)
    2884:	04401e04 	movi	r17,120
    2888:	d8802a17 	ldw	r2,168(sp)
    288c:	0039883a 	mov	fp,zero
    2890:	1001fa26 	beq	r2,zero,307c <___vfprintf_internal_r+0xb78>
    2894:	0027883a 	mov	r19,zero
    2898:	002d883a 	mov	r22,zero
    289c:	00021906 	br	3104 <___vfprintf_internal_r+0xc00>
    28a0:	d9002d17 	ldw	r4,180(sp)
    28a4:	b80b883a 	mov	r5,r23
    28a8:	00048b80 	call	48b8 <__swsetup_r>
    28ac:	1005dc1e 	bne	r2,zero,4020 <___vfprintf_internal_r+0x1b1c>
    28b0:	b880030b 	ldhu	r2,12(r23)
    28b4:	00c00284 	movi	r3,10
    28b8:	1080068c 	andi	r2,r2,26
    28bc:	10ff3a1e 	bne	r2,r3,25a8 <__alt_mem_onchip_memory2_0+0xf8001508>
    28c0:	b880038f 	ldh	r2,14(r23)
    28c4:	103f3816 	blt	r2,zero,25a8 <__alt_mem_onchip_memory2_0+0xf8001508>
    28c8:	d9c02e17 	ldw	r7,184(sp)
    28cc:	d9002d17 	ldw	r4,180(sp)
    28d0:	a80d883a 	mov	r6,r21
    28d4:	b80b883a 	mov	r5,r23
    28d8:	00047fc0 	call	47fc <__sbprintf>
    28dc:	00001106 	br	2924 <___vfprintf_internal_r+0x420>
    28e0:	d9002d17 	ldw	r4,180(sp)
    28e4:	d9801e04 	addi	r6,sp,120
    28e8:	b80b883a 	mov	r5,r23
    28ec:	0009ce40 	call	9ce4 <__sprint_r>
    28f0:	1000081e 	bne	r2,zero,2914 <___vfprintf_internal_r+0x410>
    28f4:	da000404 	addi	r8,sp,16
    28f8:	003f5106 	br	2640 <__alt_mem_onchip_memory2_0+0xf80015a0>
    28fc:	d8802017 	ldw	r2,128(sp)
    2900:	10000426 	beq	r2,zero,2914 <___vfprintf_internal_r+0x410>
    2904:	d9002d17 	ldw	r4,180(sp)
    2908:	d9801e04 	addi	r6,sp,120
    290c:	b80b883a 	mov	r5,r23
    2910:	0009ce40 	call	9ce4 <__sprint_r>
    2914:	b880030b 	ldhu	r2,12(r23)
    2918:	1080100c 	andi	r2,r2,64
    291c:	1005c01e 	bne	r2,zero,4020 <___vfprintf_internal_r+0x1b1c>
    2920:	d8802f17 	ldw	r2,188(sp)
    2924:	dfc04717 	ldw	ra,284(sp)
    2928:	df004617 	ldw	fp,280(sp)
    292c:	ddc04517 	ldw	r23,276(sp)
    2930:	dd804417 	ldw	r22,272(sp)
    2934:	dd404317 	ldw	r21,268(sp)
    2938:	dd004217 	ldw	r20,264(sp)
    293c:	dcc04117 	ldw	r19,260(sp)
    2940:	dc804017 	ldw	r18,256(sp)
    2944:	dc403f17 	ldw	r17,252(sp)
    2948:	dc003e17 	ldw	r16,248(sp)
    294c:	dec04804 	addi	sp,sp,288
    2950:	f800283a 	ret
    2954:	d9002d17 	ldw	r4,180(sp)
    2958:	00068c40 	call	68c4 <__sinit>
    295c:	003f0206 	br	2568 <__alt_mem_onchip_memory2_0+0xf80014c8>
    2960:	d9002e17 	ldw	r4,184(sp)
    2964:	d9402e17 	ldw	r5,184(sp)
    2968:	21000017 	ldw	r4,0(r4)
    296c:	28800104 	addi	r2,r5,4
    2970:	d9003115 	stw	r4,196(sp)
    2974:	203fa716 	blt	r4,zero,2814 <__alt_mem_onchip_memory2_0+0xf8001774>
    2978:	d8802e15 	stw	r2,184(sp)
    297c:	ac400007 	ldb	r17,0(r21)
    2980:	003f4206 	br	268c <__alt_mem_onchip_memory2_0+0xf80015ec>
    2984:	ac400007 	ldb	r17,0(r21)
    2988:	01000a84 	movi	r4,42
    298c:	a8c00044 	addi	r3,r21,1
    2990:	89075826 	beq	r17,r4,46f4 <___vfprintf_internal_r+0x21f0>
    2994:	8cbff404 	addi	r18,r17,-48
    2998:	b486ae36 	bltu	r22,r18,4454 <___vfprintf_internal_r+0x1f50>
    299c:	0009883a 	mov	r4,zero
    29a0:	1823883a 	mov	r17,r3
    29a4:	01400284 	movi	r5,10
    29a8:	000c9a00 	call	c9a0 <__mulsi3>
    29ac:	88c00007 	ldb	r3,0(r17)
    29b0:	1489883a 	add	r4,r2,r18
    29b4:	8d400044 	addi	r21,r17,1
    29b8:	1cbff404 	addi	r18,r3,-48
    29bc:	a823883a 	mov	r17,r21
    29c0:	b4bff82e 	bgeu	r22,r18,29a4 <__alt_mem_onchip_memory2_0+0xf8001904>
    29c4:	1823883a 	mov	r17,r3
    29c8:	2005f616 	blt	r4,zero,41a4 <___vfprintf_internal_r+0x1ca0>
    29cc:	d9002a15 	stw	r4,168(sp)
    29d0:	003f2f06 	br	2690 <__alt_mem_onchip_memory2_0+0xf80015f0>
    29d4:	84002014 	ori	r16,r16,128
    29d8:	ac400007 	ldb	r17,0(r21)
    29dc:	003f2b06 	br	268c <__alt_mem_onchip_memory2_0+0xf80015ec>
    29e0:	8cbff404 	addi	r18,r17,-48
    29e4:	d8003115 	stw	zero,196(sp)
    29e8:	0009883a 	mov	r4,zero
    29ec:	a823883a 	mov	r17,r21
    29f0:	01400284 	movi	r5,10
    29f4:	000c9a00 	call	c9a0 <__mulsi3>
    29f8:	88c00007 	ldb	r3,0(r17)
    29fc:	9089883a 	add	r4,r18,r2
    2a00:	ad400044 	addi	r21,r21,1
    2a04:	1cbff404 	addi	r18,r3,-48
    2a08:	a823883a 	mov	r17,r21
    2a0c:	b4bff82e 	bgeu	r22,r18,29f0 <__alt_mem_onchip_memory2_0+0xf8001950>
    2a10:	1823883a 	mov	r17,r3
    2a14:	d9003115 	stw	r4,196(sp)
    2a18:	003f1d06 	br	2690 <__alt_mem_onchip_memory2_0+0xf80015f0>
    2a1c:	8025883a 	mov	r18,r16
    2a20:	dc002903 	ldbu	r16,164(sp)
    2a24:	e011883a 	mov	r8,fp
    2a28:	84003fcc 	andi	r16,r16,255
    2a2c:	8007531e 	bne	r16,zero,477c <___vfprintf_internal_r+0x2278>
    2a30:	94800414 	ori	r18,r18,16
    2a34:	9080080c 	andi	r2,r18,32
    2a38:	1003a326 	beq	r2,zero,38c8 <___vfprintf_internal_r+0x13c4>
    2a3c:	d9002e17 	ldw	r4,184(sp)
    2a40:	20800117 	ldw	r2,4(r4)
    2a44:	24c00017 	ldw	r19,0(r4)
    2a48:	21000204 	addi	r4,r4,8
    2a4c:	d9002e15 	stw	r4,184(sp)
    2a50:	102d883a 	mov	r22,r2
    2a54:	10047316 	blt	r2,zero,3c24 <___vfprintf_internal_r+0x1720>
    2a58:	d9002a17 	ldw	r4,168(sp)
    2a5c:	df002783 	ldbu	fp,158(sp)
    2a60:	2003e416 	blt	r4,zero,39f4 <___vfprintf_internal_r+0x14f0>
    2a64:	00ffdfc4 	movi	r3,-129
    2a68:	9d84b03a 	or	r2,r19,r22
    2a6c:	90e4703a 	and	r18,r18,r3
    2a70:	10018026 	beq	r2,zero,3074 <___vfprintf_internal_r+0xb70>
    2a74:	b003ab26 	beq	r22,zero,3924 <___vfprintf_internal_r+0x1420>
    2a78:	dc402915 	stw	r17,164(sp)
    2a7c:	dc001e04 	addi	r16,sp,120
    2a80:	b023883a 	mov	r17,r22
    2a84:	402d883a 	mov	r22,r8
    2a88:	9809883a 	mov	r4,r19
    2a8c:	880b883a 	mov	r5,r17
    2a90:	01800284 	movi	r6,10
    2a94:	000f883a 	mov	r7,zero
    2a98:	000c2280 	call	c228 <__umoddi3>
    2a9c:	10800c04 	addi	r2,r2,48
    2aa0:	843fffc4 	addi	r16,r16,-1
    2aa4:	9809883a 	mov	r4,r19
    2aa8:	880b883a 	mov	r5,r17
    2aac:	80800005 	stb	r2,0(r16)
    2ab0:	01800284 	movi	r6,10
    2ab4:	000f883a 	mov	r7,zero
    2ab8:	000bc2c0 	call	bc2c <__udivdi3>
    2abc:	1027883a 	mov	r19,r2
    2ac0:	10c4b03a 	or	r2,r2,r3
    2ac4:	1823883a 	mov	r17,r3
    2ac8:	103fef1e 	bne	r2,zero,2a88 <__alt_mem_onchip_memory2_0+0xf80019e8>
    2acc:	d8c02817 	ldw	r3,160(sp)
    2ad0:	dc402917 	ldw	r17,164(sp)
    2ad4:	b011883a 	mov	r8,r22
    2ad8:	1c07c83a 	sub	r3,r3,r16
    2adc:	d8c02b15 	stw	r3,172(sp)
    2ae0:	00005f06 	br	2c60 <___vfprintf_internal_r+0x75c>
    2ae4:	8025883a 	mov	r18,r16
    2ae8:	dc002903 	ldbu	r16,164(sp)
    2aec:	e011883a 	mov	r8,fp
    2af0:	84003fcc 	andi	r16,r16,255
    2af4:	80071e1e 	bne	r16,zero,4770 <___vfprintf_internal_r+0x226c>
    2af8:	9080020c 	andi	r2,r18,8
    2afc:	1004af26 	beq	r2,zero,3dbc <___vfprintf_internal_r+0x18b8>
    2b00:	d9002e17 	ldw	r4,184(sp)
    2b04:	d9402e17 	ldw	r5,184(sp)
    2b08:	d8802e17 	ldw	r2,184(sp)
    2b0c:	21000017 	ldw	r4,0(r4)
    2b10:	29400117 	ldw	r5,4(r5)
    2b14:	10800204 	addi	r2,r2,8
    2b18:	d9003615 	stw	r4,216(sp)
    2b1c:	d9403815 	stw	r5,224(sp)
    2b20:	d8802e15 	stw	r2,184(sp)
    2b24:	d9003617 	ldw	r4,216(sp)
    2b28:	d9403817 	ldw	r5,224(sp)
    2b2c:	da003d15 	stw	r8,244(sp)
    2b30:	04000044 	movi	r16,1
    2b34:	00099080 	call	9908 <__fpclassifyd>
    2b38:	da003d17 	ldw	r8,244(sp)
    2b3c:	1404441e 	bne	r2,r16,3c50 <___vfprintf_internal_r+0x174c>
    2b40:	d9003617 	ldw	r4,216(sp)
    2b44:	d9403817 	ldw	r5,224(sp)
    2b48:	000d883a 	mov	r6,zero
    2b4c:	000f883a 	mov	r7,zero
    2b50:	000dda80 	call	dda8 <__ledf2>
    2b54:	da003d17 	ldw	r8,244(sp)
    2b58:	1005e316 	blt	r2,zero,42e8 <___vfprintf_internal_r+0x1de4>
    2b5c:	df002783 	ldbu	fp,158(sp)
    2b60:	008011c4 	movi	r2,71
    2b64:	1445580e 	bge	r2,r17,40c8 <___vfprintf_internal_r+0x1bc4>
    2b68:	04000074 	movhi	r16,1
    2b6c:	84088804 	addi	r16,r16,8736
    2b70:	00c000c4 	movi	r3,3
    2b74:	00bfdfc4 	movi	r2,-129
    2b78:	d8c02915 	stw	r3,164(sp)
    2b7c:	90a4703a 	and	r18,r18,r2
    2b80:	d8c02b15 	stw	r3,172(sp)
    2b84:	d8002a15 	stw	zero,168(sp)
    2b88:	d8003215 	stw	zero,200(sp)
    2b8c:	00003a06 	br	2c78 <___vfprintf_internal_r+0x774>
    2b90:	84000214 	ori	r16,r16,8
    2b94:	ac400007 	ldb	r17,0(r21)
    2b98:	003ebc06 	br	268c <__alt_mem_onchip_memory2_0+0xf80015ec>
    2b9c:	8025883a 	mov	r18,r16
    2ba0:	dc002903 	ldbu	r16,164(sp)
    2ba4:	e011883a 	mov	r8,fp
    2ba8:	84003fcc 	andi	r16,r16,255
    2bac:	8007001e 	bne	r16,zero,47b0 <___vfprintf_internal_r+0x22ac>
    2bb0:	94800414 	ori	r18,r18,16
    2bb4:	9080080c 	andi	r2,r18,32
    2bb8:	1002fa26 	beq	r2,zero,37a4 <___vfprintf_internal_r+0x12a0>
    2bbc:	d9002e17 	ldw	r4,184(sp)
    2bc0:	d9402a17 	ldw	r5,168(sp)
    2bc4:	d8002785 	stb	zero,158(sp)
    2bc8:	20800204 	addi	r2,r4,8
    2bcc:	24c00017 	ldw	r19,0(r4)
    2bd0:	25800117 	ldw	r22,4(r4)
    2bd4:	2804b116 	blt	r5,zero,3e9c <___vfprintf_internal_r+0x1998>
    2bd8:	013fdfc4 	movi	r4,-129
    2bdc:	9d86b03a 	or	r3,r19,r22
    2be0:	d8802e15 	stw	r2,184(sp)
    2be4:	9124703a 	and	r18,r18,r4
    2be8:	1802fb1e 	bne	r3,zero,37d8 <___vfprintf_internal_r+0x12d4>
    2bec:	d8c02a17 	ldw	r3,168(sp)
    2bf0:	0039883a 	mov	fp,zero
    2bf4:	1805e526 	beq	r3,zero,438c <___vfprintf_internal_r+0x1e88>
    2bf8:	0027883a 	mov	r19,zero
    2bfc:	002d883a 	mov	r22,zero
    2c00:	dc001e04 	addi	r16,sp,120
    2c04:	9806d0fa 	srli	r3,r19,3
    2c08:	b008977a 	slli	r4,r22,29
    2c0c:	b02cd0fa 	srli	r22,r22,3
    2c10:	9cc001cc 	andi	r19,r19,7
    2c14:	98800c04 	addi	r2,r19,48
    2c18:	843fffc4 	addi	r16,r16,-1
    2c1c:	20e6b03a 	or	r19,r4,r3
    2c20:	80800005 	stb	r2,0(r16)
    2c24:	9d86b03a 	or	r3,r19,r22
    2c28:	183ff61e 	bne	r3,zero,2c04 <__alt_mem_onchip_memory2_0+0xf8001b64>
    2c2c:	90c0004c 	andi	r3,r18,1
    2c30:	18014126 	beq	r3,zero,3138 <___vfprintf_internal_r+0xc34>
    2c34:	10803fcc 	andi	r2,r2,255
    2c38:	1080201c 	xori	r2,r2,128
    2c3c:	10bfe004 	addi	r2,r2,-128
    2c40:	00c00c04 	movi	r3,48
    2c44:	10c13c26 	beq	r2,r3,3138 <___vfprintf_internal_r+0xc34>
    2c48:	80ffffc5 	stb	r3,-1(r16)
    2c4c:	d8c02817 	ldw	r3,160(sp)
    2c50:	80bfffc4 	addi	r2,r16,-1
    2c54:	1021883a 	mov	r16,r2
    2c58:	1887c83a 	sub	r3,r3,r2
    2c5c:	d8c02b15 	stw	r3,172(sp)
    2c60:	d8802b17 	ldw	r2,172(sp)
    2c64:	d9002a17 	ldw	r4,168(sp)
    2c68:	1100010e 	bge	r2,r4,2c70 <___vfprintf_internal_r+0x76c>
    2c6c:	2005883a 	mov	r2,r4
    2c70:	d8802915 	stw	r2,164(sp)
    2c74:	d8003215 	stw	zero,200(sp)
    2c78:	e7003fcc 	andi	fp,fp,255
    2c7c:	e700201c 	xori	fp,fp,128
    2c80:	e73fe004 	addi	fp,fp,-128
    2c84:	e0000326 	beq	fp,zero,2c94 <___vfprintf_internal_r+0x790>
    2c88:	d8c02917 	ldw	r3,164(sp)
    2c8c:	18c00044 	addi	r3,r3,1
    2c90:	d8c02915 	stw	r3,164(sp)
    2c94:	90c0008c 	andi	r3,r18,2
    2c98:	d8c02c15 	stw	r3,176(sp)
    2c9c:	18000326 	beq	r3,zero,2cac <___vfprintf_internal_r+0x7a8>
    2ca0:	d8c02917 	ldw	r3,164(sp)
    2ca4:	18c00084 	addi	r3,r3,2
    2ca8:	d8c02915 	stw	r3,164(sp)
    2cac:	90c0210c 	andi	r3,r18,132
    2cb0:	d8c03015 	stw	r3,192(sp)
    2cb4:	1801c51e 	bne	r3,zero,33cc <___vfprintf_internal_r+0xec8>
    2cb8:	d9003117 	ldw	r4,196(sp)
    2cbc:	d8c02917 	ldw	r3,164(sp)
    2cc0:	20e7c83a 	sub	r19,r4,r3
    2cc4:	04c1c10e 	bge	zero,r19,33cc <___vfprintf_internal_r+0xec8>
    2cc8:	02400404 	movi	r9,16
    2ccc:	d8c02017 	ldw	r3,128(sp)
    2cd0:	d8801f17 	ldw	r2,124(sp)
    2cd4:	4cc52f0e 	bge	r9,r19,4194 <___vfprintf_internal_r+0x1c90>
    2cd8:	01400074 	movhi	r5,1
    2cdc:	29489b84 	addi	r5,r5,8814
    2ce0:	dc403b15 	stw	r17,236(sp)
    2ce4:	d9403515 	stw	r5,212(sp)
    2ce8:	9823883a 	mov	r17,r19
    2cec:	482d883a 	mov	r22,r9
    2cf0:	9027883a 	mov	r19,r18
    2cf4:	070001c4 	movi	fp,7
    2cf8:	8025883a 	mov	r18,r16
    2cfc:	dc002d17 	ldw	r16,180(sp)
    2d00:	00000306 	br	2d10 <___vfprintf_internal_r+0x80c>
    2d04:	8c7ffc04 	addi	r17,r17,-16
    2d08:	42000204 	addi	r8,r8,8
    2d0c:	b440130e 	bge	r22,r17,2d5c <___vfprintf_internal_r+0x858>
    2d10:	01000074 	movhi	r4,1
    2d14:	18c00404 	addi	r3,r3,16
    2d18:	10800044 	addi	r2,r2,1
    2d1c:	21089b84 	addi	r4,r4,8814
    2d20:	41000015 	stw	r4,0(r8)
    2d24:	45800115 	stw	r22,4(r8)
    2d28:	d8c02015 	stw	r3,128(sp)
    2d2c:	d8801f15 	stw	r2,124(sp)
    2d30:	e0bff40e 	bge	fp,r2,2d04 <__alt_mem_onchip_memory2_0+0xf8001c64>
    2d34:	d9801e04 	addi	r6,sp,120
    2d38:	b80b883a 	mov	r5,r23
    2d3c:	8009883a 	mov	r4,r16
    2d40:	0009ce40 	call	9ce4 <__sprint_r>
    2d44:	103ef31e 	bne	r2,zero,2914 <__alt_mem_onchip_memory2_0+0xf8001874>
    2d48:	8c7ffc04 	addi	r17,r17,-16
    2d4c:	d8c02017 	ldw	r3,128(sp)
    2d50:	d8801f17 	ldw	r2,124(sp)
    2d54:	da000404 	addi	r8,sp,16
    2d58:	b47fed16 	blt	r22,r17,2d10 <__alt_mem_onchip_memory2_0+0xf8001c70>
    2d5c:	9021883a 	mov	r16,r18
    2d60:	9825883a 	mov	r18,r19
    2d64:	8827883a 	mov	r19,r17
    2d68:	dc403b17 	ldw	r17,236(sp)
    2d6c:	d9403517 	ldw	r5,212(sp)
    2d70:	98c7883a 	add	r3,r19,r3
    2d74:	10800044 	addi	r2,r2,1
    2d78:	41400015 	stw	r5,0(r8)
    2d7c:	44c00115 	stw	r19,4(r8)
    2d80:	d8c02015 	stw	r3,128(sp)
    2d84:	d8801f15 	stw	r2,124(sp)
    2d88:	010001c4 	movi	r4,7
    2d8c:	2082c516 	blt	r4,r2,38a4 <___vfprintf_internal_r+0x13a0>
    2d90:	df002787 	ldb	fp,158(sp)
    2d94:	42000204 	addi	r8,r8,8
    2d98:	e0000c26 	beq	fp,zero,2dcc <___vfprintf_internal_r+0x8c8>
    2d9c:	d8801f17 	ldw	r2,124(sp)
    2da0:	d9002784 	addi	r4,sp,158
    2da4:	18c00044 	addi	r3,r3,1
    2da8:	10800044 	addi	r2,r2,1
    2dac:	41000015 	stw	r4,0(r8)
    2db0:	01000044 	movi	r4,1
    2db4:	41000115 	stw	r4,4(r8)
    2db8:	d8c02015 	stw	r3,128(sp)
    2dbc:	d8801f15 	stw	r2,124(sp)
    2dc0:	010001c4 	movi	r4,7
    2dc4:	20825e16 	blt	r4,r2,3740 <___vfprintf_internal_r+0x123c>
    2dc8:	42000204 	addi	r8,r8,8
    2dcc:	d8802c17 	ldw	r2,176(sp)
    2dd0:	10000c26 	beq	r2,zero,2e04 <___vfprintf_internal_r+0x900>
    2dd4:	d8801f17 	ldw	r2,124(sp)
    2dd8:	d9002704 	addi	r4,sp,156
    2ddc:	18c00084 	addi	r3,r3,2
    2de0:	10800044 	addi	r2,r2,1
    2de4:	41000015 	stw	r4,0(r8)
    2de8:	01000084 	movi	r4,2
    2dec:	41000115 	stw	r4,4(r8)
    2df0:	d8c02015 	stw	r3,128(sp)
    2df4:	d8801f15 	stw	r2,124(sp)
    2df8:	010001c4 	movi	r4,7
    2dfc:	20825816 	blt	r4,r2,3760 <___vfprintf_internal_r+0x125c>
    2e00:	42000204 	addi	r8,r8,8
    2e04:	d9003017 	ldw	r4,192(sp)
    2e08:	00802004 	movi	r2,128
    2e0c:	2081bb26 	beq	r4,r2,34fc <___vfprintf_internal_r+0xff8>
    2e10:	d9402a17 	ldw	r5,168(sp)
    2e14:	d8802b17 	ldw	r2,172(sp)
    2e18:	28adc83a 	sub	r22,r5,r2
    2e1c:	0580310e 	bge	zero,r22,2ee4 <___vfprintf_internal_r+0x9e0>
    2e20:	07000404 	movi	fp,16
    2e24:	d8801f17 	ldw	r2,124(sp)
    2e28:	e584360e 	bge	fp,r22,3f04 <___vfprintf_internal_r+0x1a00>
    2e2c:	01400074 	movhi	r5,1
    2e30:	29489784 	addi	r5,r5,8798
    2e34:	dc402a15 	stw	r17,168(sp)
    2e38:	d9402c15 	stw	r5,176(sp)
    2e3c:	b023883a 	mov	r17,r22
    2e40:	04c001c4 	movi	r19,7
    2e44:	a82d883a 	mov	r22,r21
    2e48:	902b883a 	mov	r21,r18
    2e4c:	8025883a 	mov	r18,r16
    2e50:	dc002d17 	ldw	r16,180(sp)
    2e54:	00000306 	br	2e64 <___vfprintf_internal_r+0x960>
    2e58:	8c7ffc04 	addi	r17,r17,-16
    2e5c:	42000204 	addi	r8,r8,8
    2e60:	e440110e 	bge	fp,r17,2ea8 <___vfprintf_internal_r+0x9a4>
    2e64:	18c00404 	addi	r3,r3,16
    2e68:	10800044 	addi	r2,r2,1
    2e6c:	45000015 	stw	r20,0(r8)
    2e70:	47000115 	stw	fp,4(r8)
    2e74:	d8c02015 	stw	r3,128(sp)
    2e78:	d8801f15 	stw	r2,124(sp)
    2e7c:	98bff60e 	bge	r19,r2,2e58 <__alt_mem_onchip_memory2_0+0xf8001db8>
    2e80:	d9801e04 	addi	r6,sp,120
    2e84:	b80b883a 	mov	r5,r23
    2e88:	8009883a 	mov	r4,r16
    2e8c:	0009ce40 	call	9ce4 <__sprint_r>
    2e90:	103ea01e 	bne	r2,zero,2914 <__alt_mem_onchip_memory2_0+0xf8001874>
    2e94:	8c7ffc04 	addi	r17,r17,-16
    2e98:	d8c02017 	ldw	r3,128(sp)
    2e9c:	d8801f17 	ldw	r2,124(sp)
    2ea0:	da000404 	addi	r8,sp,16
    2ea4:	e47fef16 	blt	fp,r17,2e64 <__alt_mem_onchip_memory2_0+0xf8001dc4>
    2ea8:	9021883a 	mov	r16,r18
    2eac:	a825883a 	mov	r18,r21
    2eb0:	b02b883a 	mov	r21,r22
    2eb4:	882d883a 	mov	r22,r17
    2eb8:	dc402a17 	ldw	r17,168(sp)
    2ebc:	d9002c17 	ldw	r4,176(sp)
    2ec0:	1d87883a 	add	r3,r3,r22
    2ec4:	10800044 	addi	r2,r2,1
    2ec8:	41000015 	stw	r4,0(r8)
    2ecc:	45800115 	stw	r22,4(r8)
    2ed0:	d8c02015 	stw	r3,128(sp)
    2ed4:	d8801f15 	stw	r2,124(sp)
    2ed8:	010001c4 	movi	r4,7
    2edc:	20821016 	blt	r4,r2,3720 <___vfprintf_internal_r+0x121c>
    2ee0:	42000204 	addi	r8,r8,8
    2ee4:	9080400c 	andi	r2,r18,256
    2ee8:	10013a1e 	bne	r2,zero,33d4 <___vfprintf_internal_r+0xed0>
    2eec:	d9402b17 	ldw	r5,172(sp)
    2ef0:	d8801f17 	ldw	r2,124(sp)
    2ef4:	44000015 	stw	r16,0(r8)
    2ef8:	1947883a 	add	r3,r3,r5
    2efc:	10800044 	addi	r2,r2,1
    2f00:	41400115 	stw	r5,4(r8)
    2f04:	d8c02015 	stw	r3,128(sp)
    2f08:	d8801f15 	stw	r2,124(sp)
    2f0c:	010001c4 	movi	r4,7
    2f10:	2081f516 	blt	r4,r2,36e8 <___vfprintf_internal_r+0x11e4>
    2f14:	42000204 	addi	r8,r8,8
    2f18:	9480010c 	andi	r18,r18,4
    2f1c:	90003226 	beq	r18,zero,2fe8 <___vfprintf_internal_r+0xae4>
    2f20:	d9403117 	ldw	r5,196(sp)
    2f24:	d8802917 	ldw	r2,164(sp)
    2f28:	28a1c83a 	sub	r16,r5,r2
    2f2c:	04002e0e 	bge	zero,r16,2fe8 <___vfprintf_internal_r+0xae4>
    2f30:	04400404 	movi	r17,16
    2f34:	d8801f17 	ldw	r2,124(sp)
    2f38:	8c04c40e 	bge	r17,r16,424c <___vfprintf_internal_r+0x1d48>
    2f3c:	01400074 	movhi	r5,1
    2f40:	29489b84 	addi	r5,r5,8814
    2f44:	d9403515 	stw	r5,212(sp)
    2f48:	048001c4 	movi	r18,7
    2f4c:	dcc02d17 	ldw	r19,180(sp)
    2f50:	00000306 	br	2f60 <___vfprintf_internal_r+0xa5c>
    2f54:	843ffc04 	addi	r16,r16,-16
    2f58:	42000204 	addi	r8,r8,8
    2f5c:	8c00130e 	bge	r17,r16,2fac <___vfprintf_internal_r+0xaa8>
    2f60:	01000074 	movhi	r4,1
    2f64:	18c00404 	addi	r3,r3,16
    2f68:	10800044 	addi	r2,r2,1
    2f6c:	21089b84 	addi	r4,r4,8814
    2f70:	41000015 	stw	r4,0(r8)
    2f74:	44400115 	stw	r17,4(r8)
    2f78:	d8c02015 	stw	r3,128(sp)
    2f7c:	d8801f15 	stw	r2,124(sp)
    2f80:	90bff40e 	bge	r18,r2,2f54 <__alt_mem_onchip_memory2_0+0xf8001eb4>
    2f84:	d9801e04 	addi	r6,sp,120
    2f88:	b80b883a 	mov	r5,r23
    2f8c:	9809883a 	mov	r4,r19
    2f90:	0009ce40 	call	9ce4 <__sprint_r>
    2f94:	103e5f1e 	bne	r2,zero,2914 <__alt_mem_onchip_memory2_0+0xf8001874>
    2f98:	843ffc04 	addi	r16,r16,-16
    2f9c:	d8c02017 	ldw	r3,128(sp)
    2fa0:	d8801f17 	ldw	r2,124(sp)
    2fa4:	da000404 	addi	r8,sp,16
    2fa8:	8c3fed16 	blt	r17,r16,2f60 <__alt_mem_onchip_memory2_0+0xf8001ec0>
    2fac:	d9403517 	ldw	r5,212(sp)
    2fb0:	1c07883a 	add	r3,r3,r16
    2fb4:	10800044 	addi	r2,r2,1
    2fb8:	41400015 	stw	r5,0(r8)
    2fbc:	44000115 	stw	r16,4(r8)
    2fc0:	d8c02015 	stw	r3,128(sp)
    2fc4:	d8801f15 	stw	r2,124(sp)
    2fc8:	010001c4 	movi	r4,7
    2fcc:	2080060e 	bge	r4,r2,2fe8 <___vfprintf_internal_r+0xae4>
    2fd0:	d9002d17 	ldw	r4,180(sp)
    2fd4:	d9801e04 	addi	r6,sp,120
    2fd8:	b80b883a 	mov	r5,r23
    2fdc:	0009ce40 	call	9ce4 <__sprint_r>
    2fe0:	103e4c1e 	bne	r2,zero,2914 <__alt_mem_onchip_memory2_0+0xf8001874>
    2fe4:	d8c02017 	ldw	r3,128(sp)
    2fe8:	d8803117 	ldw	r2,196(sp)
    2fec:	d9002917 	ldw	r4,164(sp)
    2ff0:	1100010e 	bge	r2,r4,2ff8 <___vfprintf_internal_r+0xaf4>
    2ff4:	2005883a 	mov	r2,r4
    2ff8:	d9402f17 	ldw	r5,188(sp)
    2ffc:	288b883a 	add	r5,r5,r2
    3000:	d9402f15 	stw	r5,188(sp)
    3004:	1801c01e 	bne	r3,zero,3708 <___vfprintf_internal_r+0x1204>
    3008:	a8800007 	ldb	r2,0(r21)
    300c:	d8001f15 	stw	zero,124(sp)
    3010:	da000404 	addi	r8,sp,16
    3014:	103d751e 	bne	r2,zero,25ec <__alt_mem_onchip_memory2_0+0xf800154c>
    3018:	a823883a 	mov	r17,r21
    301c:	003d8b06 	br	264c <__alt_mem_onchip_memory2_0+0xf80015ac>
    3020:	8025883a 	mov	r18,r16
    3024:	dc002903 	ldbu	r16,164(sp)
    3028:	e011883a 	mov	r8,fp
    302c:	84003fcc 	andi	r16,r16,255
    3030:	8005e51e 	bne	r16,zero,47c8 <___vfprintf_internal_r+0x22c4>
    3034:	94800414 	ori	r18,r18,16
    3038:	9080080c 	andi	r2,r18,32
    303c:	10022b26 	beq	r2,zero,38ec <___vfprintf_internal_r+0x13e8>
    3040:	d9002e17 	ldw	r4,184(sp)
    3044:	d9402a17 	ldw	r5,168(sp)
    3048:	d8002785 	stb	zero,158(sp)
    304c:	20c00204 	addi	r3,r4,8
    3050:	24c00017 	ldw	r19,0(r4)
    3054:	25800117 	ldw	r22,4(r4)
    3058:	28042e16 	blt	r5,zero,4114 <___vfprintf_internal_r+0x1c10>
    305c:	013fdfc4 	movi	r4,-129
    3060:	9d84b03a 	or	r2,r19,r22
    3064:	d8c02e15 	stw	r3,184(sp)
    3068:	9124703a 	and	r18,r18,r4
    306c:	0039883a 	mov	fp,zero
    3070:	103e801e 	bne	r2,zero,2a74 <__alt_mem_onchip_memory2_0+0xf80019d4>
    3074:	d9002a17 	ldw	r4,168(sp)
    3078:	2002e01e 	bne	r4,zero,3bfc <___vfprintf_internal_r+0x16f8>
    307c:	d8002a15 	stw	zero,168(sp)
    3080:	d8002b15 	stw	zero,172(sp)
    3084:	dc001e04 	addi	r16,sp,120
    3088:	003ef506 	br	2c60 <__alt_mem_onchip_memory2_0+0xf8001bc0>
    308c:	8025883a 	mov	r18,r16
    3090:	dc002903 	ldbu	r16,164(sp)
    3094:	e011883a 	mov	r8,fp
    3098:	84003fcc 	andi	r16,r16,255
    309c:	8005ba1e 	bne	r16,zero,4788 <___vfprintf_internal_r+0x2284>
    30a0:	01000074 	movhi	r4,1
    30a4:	21088b04 	addi	r4,r4,8748
    30a8:	d9003915 	stw	r4,228(sp)
    30ac:	9080080c 	andi	r2,r18,32
    30b0:	10006126 	beq	r2,zero,3238 <___vfprintf_internal_r+0xd34>
    30b4:	d9402e17 	ldw	r5,184(sp)
    30b8:	2cc00017 	ldw	r19,0(r5)
    30bc:	2d800117 	ldw	r22,4(r5)
    30c0:	29400204 	addi	r5,r5,8
    30c4:	d9402e15 	stw	r5,184(sp)
    30c8:	9080004c 	andi	r2,r18,1
    30cc:	1001ac26 	beq	r2,zero,3780 <___vfprintf_internal_r+0x127c>
    30d0:	9d84b03a 	or	r2,r19,r22
    30d4:	10038526 	beq	r2,zero,3eec <___vfprintf_internal_r+0x19e8>
    30d8:	d8c02a17 	ldw	r3,168(sp)
    30dc:	00800c04 	movi	r2,48
    30e0:	d8802705 	stb	r2,156(sp)
    30e4:	dc402745 	stb	r17,157(sp)
    30e8:	d8002785 	stb	zero,158(sp)
    30ec:	90800094 	ori	r2,r18,2
    30f0:	18047916 	blt	r3,zero,42d8 <___vfprintf_internal_r+0x1dd4>
    30f4:	00bfdfc4 	movi	r2,-129
    30f8:	90a4703a 	and	r18,r18,r2
    30fc:	94800094 	ori	r18,r18,2
    3100:	0039883a 	mov	fp,zero
    3104:	d9003917 	ldw	r4,228(sp)
    3108:	dc001e04 	addi	r16,sp,120
    310c:	988003cc 	andi	r2,r19,15
    3110:	b006973a 	slli	r3,r22,28
    3114:	2085883a 	add	r2,r4,r2
    3118:	9826d13a 	srli	r19,r19,4
    311c:	10800003 	ldbu	r2,0(r2)
    3120:	b02cd13a 	srli	r22,r22,4
    3124:	843fffc4 	addi	r16,r16,-1
    3128:	1ce6b03a 	or	r19,r3,r19
    312c:	80800005 	stb	r2,0(r16)
    3130:	9d84b03a 	or	r2,r19,r22
    3134:	103ff51e 	bne	r2,zero,310c <__alt_mem_onchip_memory2_0+0xf800206c>
    3138:	d8c02817 	ldw	r3,160(sp)
    313c:	1c07c83a 	sub	r3,r3,r16
    3140:	d8c02b15 	stw	r3,172(sp)
    3144:	003ec606 	br	2c60 <__alt_mem_onchip_memory2_0+0xf8001bc0>
    3148:	8025883a 	mov	r18,r16
    314c:	dc002903 	ldbu	r16,164(sp)
    3150:	e011883a 	mov	r8,fp
    3154:	84003fcc 	andi	r16,r16,255
    3158:	803e9626 	beq	r16,zero,2bb4 <__alt_mem_onchip_memory2_0+0xf8001b14>
    315c:	d8c02b03 	ldbu	r3,172(sp)
    3160:	d8c02785 	stb	r3,158(sp)
    3164:	003e9306 	br	2bb4 <__alt_mem_onchip_memory2_0+0xf8001b14>
    3168:	00c00044 	movi	r3,1
    316c:	d8c02905 	stb	r3,164(sp)
    3170:	00c00ac4 	movi	r3,43
    3174:	d8c02b05 	stb	r3,172(sp)
    3178:	ac400007 	ldb	r17,0(r21)
    317c:	003d4306 	br	268c <__alt_mem_onchip_memory2_0+0xf80015ec>
    3180:	84000814 	ori	r16,r16,32
    3184:	ac400007 	ldb	r17,0(r21)
    3188:	003d4006 	br	268c <__alt_mem_onchip_memory2_0+0xf80015ec>
    318c:	d8802e17 	ldw	r2,184(sp)
    3190:	8025883a 	mov	r18,r16
    3194:	d8002785 	stb	zero,158(sp)
    3198:	14000017 	ldw	r16,0(r2)
    319c:	e011883a 	mov	r8,fp
    31a0:	14c00104 	addi	r19,r2,4
    31a4:	80042d26 	beq	r16,zero,425c <___vfprintf_internal_r+0x1d58>
    31a8:	d8c02a17 	ldw	r3,168(sp)
    31ac:	1803e416 	blt	r3,zero,4140 <___vfprintf_internal_r+0x1c3c>
    31b0:	180d883a 	mov	r6,r3
    31b4:	000b883a 	mov	r5,zero
    31b8:	8009883a 	mov	r4,r16
    31bc:	df003d15 	stw	fp,244(sp)
    31c0:	0007e3c0 	call	7e3c <memchr>
    31c4:	da003d17 	ldw	r8,244(sp)
    31c8:	10046826 	beq	r2,zero,436c <___vfprintf_internal_r+0x1e68>
    31cc:	1405c83a 	sub	r2,r2,r16
    31d0:	d8802b15 	stw	r2,172(sp)
    31d4:	1003e016 	blt	r2,zero,4158 <___vfprintf_internal_r+0x1c54>
    31d8:	df002783 	ldbu	fp,158(sp)
    31dc:	d8802915 	stw	r2,164(sp)
    31e0:	dcc02e15 	stw	r19,184(sp)
    31e4:	d8002a15 	stw	zero,168(sp)
    31e8:	d8003215 	stw	zero,200(sp)
    31ec:	003ea206 	br	2c78 <__alt_mem_onchip_memory2_0+0xf8001bd8>
    31f0:	8025883a 	mov	r18,r16
    31f4:	dc002903 	ldbu	r16,164(sp)
    31f8:	e011883a 	mov	r8,fp
    31fc:	84003fcc 	andi	r16,r16,255
    3200:	803f8d26 	beq	r16,zero,3038 <__alt_mem_onchip_memory2_0+0xf8001f98>
    3204:	d8c02b03 	ldbu	r3,172(sp)
    3208:	d8c02785 	stb	r3,158(sp)
    320c:	003f8a06 	br	3038 <__alt_mem_onchip_memory2_0+0xf8001f98>
    3210:	8025883a 	mov	r18,r16
    3214:	dc002903 	ldbu	r16,164(sp)
    3218:	e011883a 	mov	r8,fp
    321c:	84003fcc 	andi	r16,r16,255
    3220:	8005661e 	bne	r16,zero,47bc <___vfprintf_internal_r+0x22b8>
    3224:	01000074 	movhi	r4,1
    3228:	21089004 	addi	r4,r4,8768
    322c:	d9003915 	stw	r4,228(sp)
    3230:	9080080c 	andi	r2,r18,32
    3234:	103f9f1e 	bne	r2,zero,30b4 <__alt_mem_onchip_memory2_0+0xf8002014>
    3238:	9080040c 	andi	r2,r18,16
    323c:	1002eb26 	beq	r2,zero,3dec <___vfprintf_internal_r+0x18e8>
    3240:	d8802e17 	ldw	r2,184(sp)
    3244:	002d883a 	mov	r22,zero
    3248:	14c00017 	ldw	r19,0(r2)
    324c:	10800104 	addi	r2,r2,4
    3250:	d8802e15 	stw	r2,184(sp)
    3254:	003f9c06 	br	30c8 <__alt_mem_onchip_memory2_0+0xf8002028>
    3258:	d8802b07 	ldb	r2,172(sp)
    325c:	1002e11e 	bne	r2,zero,3de4 <___vfprintf_internal_r+0x18e0>
    3260:	00c00044 	movi	r3,1
    3264:	d8c02905 	stb	r3,164(sp)
    3268:	00c00804 	movi	r3,32
    326c:	d8c02b05 	stb	r3,172(sp)
    3270:	ac400007 	ldb	r17,0(r21)
    3274:	003d0506 	br	268c <__alt_mem_onchip_memory2_0+0xf80015ec>
    3278:	84000054 	ori	r16,r16,1
    327c:	ac400007 	ldb	r17,0(r21)
    3280:	003d0206 	br	268c <__alt_mem_onchip_memory2_0+0xf80015ec>
    3284:	8025883a 	mov	r18,r16
    3288:	dc002903 	ldbu	r16,164(sp)
    328c:	e011883a 	mov	r8,fp
    3290:	84003fcc 	andi	r16,r16,255
    3294:	803de726 	beq	r16,zero,2a34 <__alt_mem_onchip_memory2_0+0xf8001994>
    3298:	d8c02b03 	ldbu	r3,172(sp)
    329c:	d8c02785 	stb	r3,158(sp)
    32a0:	003de406 	br	2a34 <__alt_mem_onchip_memory2_0+0xf8001994>
    32a4:	84001014 	ori	r16,r16,64
    32a8:	ac400007 	ldb	r17,0(r21)
    32ac:	003cf706 	br	268c <__alt_mem_onchip_memory2_0+0xf80015ec>
    32b0:	ac400007 	ldb	r17,0(r21)
    32b4:	00801b04 	movi	r2,108
    32b8:	88838f26 	beq	r17,r2,40f8 <___vfprintf_internal_r+0x1bf4>
    32bc:	84000414 	ori	r16,r16,16
    32c0:	003cf206 	br	268c <__alt_mem_onchip_memory2_0+0xf80015ec>
    32c4:	8025883a 	mov	r18,r16
    32c8:	dc002903 	ldbu	r16,164(sp)
    32cc:	e011883a 	mov	r8,fp
    32d0:	84003fcc 	andi	r16,r16,255
    32d4:	80053f1e 	bne	r16,zero,47d4 <___vfprintf_internal_r+0x22d0>
    32d8:	9080080c 	andi	r2,r18,32
    32dc:	1002d226 	beq	r2,zero,3e28 <___vfprintf_internal_r+0x1924>
    32e0:	d9002e17 	ldw	r4,184(sp)
    32e4:	d9402f17 	ldw	r5,188(sp)
    32e8:	20800017 	ldw	r2,0(r4)
    32ec:	2807d7fa 	srai	r3,r5,31
    32f0:	21000104 	addi	r4,r4,4
    32f4:	d9002e15 	stw	r4,184(sp)
    32f8:	11400015 	stw	r5,0(r2)
    32fc:	10c00115 	stw	r3,4(r2)
    3300:	003cb806 	br	25e4 <__alt_mem_onchip_memory2_0+0xf8001544>
    3304:	d8c02e17 	ldw	r3,184(sp)
    3308:	d9002e17 	ldw	r4,184(sp)
    330c:	8025883a 	mov	r18,r16
    3310:	18800017 	ldw	r2,0(r3)
    3314:	21000104 	addi	r4,r4,4
    3318:	00c00044 	movi	r3,1
    331c:	e011883a 	mov	r8,fp
    3320:	d8c02915 	stw	r3,164(sp)
    3324:	d8002785 	stb	zero,158(sp)
    3328:	d8801405 	stb	r2,80(sp)
    332c:	d9002e15 	stw	r4,184(sp)
    3330:	d8c02b15 	stw	r3,172(sp)
    3334:	d8002a15 	stw	zero,168(sp)
    3338:	d8003215 	stw	zero,200(sp)
    333c:	dc001404 	addi	r16,sp,80
    3340:	0039883a 	mov	fp,zero
    3344:	003e5306 	br	2c94 <__alt_mem_onchip_memory2_0+0xf8001bf4>
    3348:	01000074 	movhi	r4,1
    334c:	21089004 	addi	r4,r4,8768
    3350:	0039883a 	mov	fp,zero
    3354:	d9003915 	stw	r4,228(sp)
    3358:	04401e04 	movi	r17,120
    335c:	003f6906 	br	3104 <__alt_mem_onchip_memory2_0+0xf8002064>
    3360:	8025883a 	mov	r18,r16
    3364:	dc002903 	ldbu	r16,164(sp)
    3368:	e011883a 	mov	r8,fp
    336c:	84003fcc 	andi	r16,r16,255
    3370:	8005081e 	bne	r16,zero,4794 <___vfprintf_internal_r+0x2290>
    3374:	883d6126 	beq	r17,zero,28fc <__alt_mem_onchip_memory2_0+0xf800185c>
    3378:	00c00044 	movi	r3,1
    337c:	d8c02915 	stw	r3,164(sp)
    3380:	dc401405 	stb	r17,80(sp)
    3384:	d8002785 	stb	zero,158(sp)
    3388:	003fe906 	br	3330 <__alt_mem_onchip_memory2_0+0xf8002290>
    338c:	01400074 	movhi	r5,1
    3390:	29489004 	addi	r5,r5,8768
    3394:	d9403915 	stw	r5,228(sp)
    3398:	d8c02e15 	stw	r3,184(sp)
    339c:	1025883a 	mov	r18,r2
    33a0:	04401e04 	movi	r17,120
    33a4:	9d84b03a 	or	r2,r19,r22
    33a8:	1000fc1e 	bne	r2,zero,379c <___vfprintf_internal_r+0x1298>
    33ac:	0039883a 	mov	fp,zero
    33b0:	00800084 	movi	r2,2
    33b4:	10803fcc 	andi	r2,r2,255
    33b8:	00c00044 	movi	r3,1
    33bc:	10c20f26 	beq	r2,r3,3bfc <___vfprintf_internal_r+0x16f8>
    33c0:	00c00084 	movi	r3,2
    33c4:	10fd3326 	beq	r2,r3,2894 <__alt_mem_onchip_memory2_0+0xf80017f4>
    33c8:	003e0b06 	br	2bf8 <__alt_mem_onchip_memory2_0+0xf8001b58>
    33cc:	d8c02017 	ldw	r3,128(sp)
    33d0:	003e7106 	br	2d98 <__alt_mem_onchip_memory2_0+0xf8001cf8>
    33d4:	00801944 	movi	r2,101
    33d8:	14407e0e 	bge	r2,r17,35d4 <___vfprintf_internal_r+0x10d0>
    33dc:	d9003617 	ldw	r4,216(sp)
    33e0:	d9403817 	ldw	r5,224(sp)
    33e4:	000d883a 	mov	r6,zero
    33e8:	000f883a 	mov	r7,zero
    33ec:	d8c03c15 	stw	r3,240(sp)
    33f0:	da003d15 	stw	r8,244(sp)
    33f4:	000dc440 	call	dc44 <__eqdf2>
    33f8:	d8c03c17 	ldw	r3,240(sp)
    33fc:	da003d17 	ldw	r8,244(sp)
    3400:	1000f71e 	bne	r2,zero,37e0 <___vfprintf_internal_r+0x12dc>
    3404:	d8801f17 	ldw	r2,124(sp)
    3408:	01000074 	movhi	r4,1
    340c:	21089704 	addi	r4,r4,8796
    3410:	18c00044 	addi	r3,r3,1
    3414:	10800044 	addi	r2,r2,1
    3418:	41000015 	stw	r4,0(r8)
    341c:	01000044 	movi	r4,1
    3420:	41000115 	stw	r4,4(r8)
    3424:	d8c02015 	stw	r3,128(sp)
    3428:	d8801f15 	stw	r2,124(sp)
    342c:	010001c4 	movi	r4,7
    3430:	2082b816 	blt	r4,r2,3f14 <___vfprintf_internal_r+0x1a10>
    3434:	42000204 	addi	r8,r8,8
    3438:	d8802617 	ldw	r2,152(sp)
    343c:	d9403317 	ldw	r5,204(sp)
    3440:	11400216 	blt	r2,r5,344c <___vfprintf_internal_r+0xf48>
    3444:	9080004c 	andi	r2,r18,1
    3448:	103eb326 	beq	r2,zero,2f18 <__alt_mem_onchip_memory2_0+0xf8001e78>
    344c:	d8803717 	ldw	r2,220(sp)
    3450:	d9003417 	ldw	r4,208(sp)
    3454:	d9403717 	ldw	r5,220(sp)
    3458:	1887883a 	add	r3,r3,r2
    345c:	d8801f17 	ldw	r2,124(sp)
    3460:	41000015 	stw	r4,0(r8)
    3464:	41400115 	stw	r5,4(r8)
    3468:	10800044 	addi	r2,r2,1
    346c:	d8c02015 	stw	r3,128(sp)
    3470:	d8801f15 	stw	r2,124(sp)
    3474:	010001c4 	movi	r4,7
    3478:	20832916 	blt	r4,r2,4120 <___vfprintf_internal_r+0x1c1c>
    347c:	42000204 	addi	r8,r8,8
    3480:	d8803317 	ldw	r2,204(sp)
    3484:	143fffc4 	addi	r16,r2,-1
    3488:	043ea30e 	bge	zero,r16,2f18 <__alt_mem_onchip_memory2_0+0xf8001e78>
    348c:	04400404 	movi	r17,16
    3490:	d8801f17 	ldw	r2,124(sp)
    3494:	8c00880e 	bge	r17,r16,36b8 <___vfprintf_internal_r+0x11b4>
    3498:	01400074 	movhi	r5,1
    349c:	29489784 	addi	r5,r5,8798
    34a0:	d9402c15 	stw	r5,176(sp)
    34a4:	058001c4 	movi	r22,7
    34a8:	dcc02d17 	ldw	r19,180(sp)
    34ac:	00000306 	br	34bc <___vfprintf_internal_r+0xfb8>
    34b0:	42000204 	addi	r8,r8,8
    34b4:	843ffc04 	addi	r16,r16,-16
    34b8:	8c00820e 	bge	r17,r16,36c4 <___vfprintf_internal_r+0x11c0>
    34bc:	18c00404 	addi	r3,r3,16
    34c0:	10800044 	addi	r2,r2,1
    34c4:	45000015 	stw	r20,0(r8)
    34c8:	44400115 	stw	r17,4(r8)
    34cc:	d8c02015 	stw	r3,128(sp)
    34d0:	d8801f15 	stw	r2,124(sp)
    34d4:	b0bff60e 	bge	r22,r2,34b0 <__alt_mem_onchip_memory2_0+0xf8002410>
    34d8:	d9801e04 	addi	r6,sp,120
    34dc:	b80b883a 	mov	r5,r23
    34e0:	9809883a 	mov	r4,r19
    34e4:	0009ce40 	call	9ce4 <__sprint_r>
    34e8:	103d0a1e 	bne	r2,zero,2914 <__alt_mem_onchip_memory2_0+0xf8001874>
    34ec:	d8c02017 	ldw	r3,128(sp)
    34f0:	d8801f17 	ldw	r2,124(sp)
    34f4:	da000404 	addi	r8,sp,16
    34f8:	003fee06 	br	34b4 <__alt_mem_onchip_memory2_0+0xf8002414>
    34fc:	d9403117 	ldw	r5,196(sp)
    3500:	d8802917 	ldw	r2,164(sp)
    3504:	28adc83a 	sub	r22,r5,r2
    3508:	05be410e 	bge	zero,r22,2e10 <__alt_mem_onchip_memory2_0+0xf8001d70>
    350c:	07000404 	movi	fp,16
    3510:	d8801f17 	ldw	r2,124(sp)
    3514:	e5838f0e 	bge	fp,r22,4354 <___vfprintf_internal_r+0x1e50>
    3518:	01400074 	movhi	r5,1
    351c:	29489784 	addi	r5,r5,8798
    3520:	dc403015 	stw	r17,192(sp)
    3524:	d9402c15 	stw	r5,176(sp)
    3528:	b023883a 	mov	r17,r22
    352c:	04c001c4 	movi	r19,7
    3530:	a82d883a 	mov	r22,r21
    3534:	902b883a 	mov	r21,r18
    3538:	8025883a 	mov	r18,r16
    353c:	dc002d17 	ldw	r16,180(sp)
    3540:	00000306 	br	3550 <___vfprintf_internal_r+0x104c>
    3544:	8c7ffc04 	addi	r17,r17,-16
    3548:	42000204 	addi	r8,r8,8
    354c:	e440110e 	bge	fp,r17,3594 <___vfprintf_internal_r+0x1090>
    3550:	18c00404 	addi	r3,r3,16
    3554:	10800044 	addi	r2,r2,1
    3558:	45000015 	stw	r20,0(r8)
    355c:	47000115 	stw	fp,4(r8)
    3560:	d8c02015 	stw	r3,128(sp)
    3564:	d8801f15 	stw	r2,124(sp)
    3568:	98bff60e 	bge	r19,r2,3544 <__alt_mem_onchip_memory2_0+0xf80024a4>
    356c:	d9801e04 	addi	r6,sp,120
    3570:	b80b883a 	mov	r5,r23
    3574:	8009883a 	mov	r4,r16
    3578:	0009ce40 	call	9ce4 <__sprint_r>
    357c:	103ce51e 	bne	r2,zero,2914 <__alt_mem_onchip_memory2_0+0xf8001874>
    3580:	8c7ffc04 	addi	r17,r17,-16
    3584:	d8c02017 	ldw	r3,128(sp)
    3588:	d8801f17 	ldw	r2,124(sp)
    358c:	da000404 	addi	r8,sp,16
    3590:	e47fef16 	blt	fp,r17,3550 <__alt_mem_onchip_memory2_0+0xf80024b0>
    3594:	9021883a 	mov	r16,r18
    3598:	a825883a 	mov	r18,r21
    359c:	b02b883a 	mov	r21,r22
    35a0:	882d883a 	mov	r22,r17
    35a4:	dc403017 	ldw	r17,192(sp)
    35a8:	d9002c17 	ldw	r4,176(sp)
    35ac:	1d87883a 	add	r3,r3,r22
    35b0:	10800044 	addi	r2,r2,1
    35b4:	41000015 	stw	r4,0(r8)
    35b8:	45800115 	stw	r22,4(r8)
    35bc:	d8c02015 	stw	r3,128(sp)
    35c0:	d8801f15 	stw	r2,124(sp)
    35c4:	010001c4 	movi	r4,7
    35c8:	20818e16 	blt	r4,r2,3c04 <___vfprintf_internal_r+0x1700>
    35cc:	42000204 	addi	r8,r8,8
    35d0:	003e0f06 	br	2e10 <__alt_mem_onchip_memory2_0+0xf8001d70>
    35d4:	d9403317 	ldw	r5,204(sp)
    35d8:	00800044 	movi	r2,1
    35dc:	18c00044 	addi	r3,r3,1
    35e0:	1141530e 	bge	r2,r5,3b30 <___vfprintf_internal_r+0x162c>
    35e4:	dc401f17 	ldw	r17,124(sp)
    35e8:	00800044 	movi	r2,1
    35ec:	40800115 	stw	r2,4(r8)
    35f0:	8c400044 	addi	r17,r17,1
    35f4:	44000015 	stw	r16,0(r8)
    35f8:	d8c02015 	stw	r3,128(sp)
    35fc:	dc401f15 	stw	r17,124(sp)
    3600:	008001c4 	movi	r2,7
    3604:	14416b16 	blt	r2,r17,3bb4 <___vfprintf_internal_r+0x16b0>
    3608:	42000204 	addi	r8,r8,8
    360c:	d8803717 	ldw	r2,220(sp)
    3610:	d9003417 	ldw	r4,208(sp)
    3614:	8c400044 	addi	r17,r17,1
    3618:	10c7883a 	add	r3,r2,r3
    361c:	40800115 	stw	r2,4(r8)
    3620:	41000015 	stw	r4,0(r8)
    3624:	d8c02015 	stw	r3,128(sp)
    3628:	dc401f15 	stw	r17,124(sp)
    362c:	008001c4 	movi	r2,7
    3630:	14416916 	blt	r2,r17,3bd8 <___vfprintf_internal_r+0x16d4>
    3634:	45800204 	addi	r22,r8,8
    3638:	d9003617 	ldw	r4,216(sp)
    363c:	d9403817 	ldw	r5,224(sp)
    3640:	000d883a 	mov	r6,zero
    3644:	000f883a 	mov	r7,zero
    3648:	d8c03c15 	stw	r3,240(sp)
    364c:	000dc440 	call	dc44 <__eqdf2>
    3650:	d8c03c17 	ldw	r3,240(sp)
    3654:	1000bc26 	beq	r2,zero,3948 <___vfprintf_internal_r+0x1444>
    3658:	d9403317 	ldw	r5,204(sp)
    365c:	84000044 	addi	r16,r16,1
    3660:	8c400044 	addi	r17,r17,1
    3664:	28bfffc4 	addi	r2,r5,-1
    3668:	1887883a 	add	r3,r3,r2
    366c:	b0800115 	stw	r2,4(r22)
    3670:	b4000015 	stw	r16,0(r22)
    3674:	d8c02015 	stw	r3,128(sp)
    3678:	dc401f15 	stw	r17,124(sp)
    367c:	008001c4 	movi	r2,7
    3680:	14414316 	blt	r2,r17,3b90 <___vfprintf_internal_r+0x168c>
    3684:	b5800204 	addi	r22,r22,8
    3688:	d9003a17 	ldw	r4,232(sp)
    368c:	df0022c4 	addi	fp,sp,139
    3690:	8c400044 	addi	r17,r17,1
    3694:	20c7883a 	add	r3,r4,r3
    3698:	b7000015 	stw	fp,0(r22)
    369c:	b1000115 	stw	r4,4(r22)
    36a0:	d8c02015 	stw	r3,128(sp)
    36a4:	dc401f15 	stw	r17,124(sp)
    36a8:	008001c4 	movi	r2,7
    36ac:	14400e16 	blt	r2,r17,36e8 <___vfprintf_internal_r+0x11e4>
    36b0:	b2000204 	addi	r8,r22,8
    36b4:	003e1806 	br	2f18 <__alt_mem_onchip_memory2_0+0xf8001e78>
    36b8:	01000074 	movhi	r4,1
    36bc:	21089784 	addi	r4,r4,8798
    36c0:	d9002c15 	stw	r4,176(sp)
    36c4:	d9002c17 	ldw	r4,176(sp)
    36c8:	1c07883a 	add	r3,r3,r16
    36cc:	44000115 	stw	r16,4(r8)
    36d0:	41000015 	stw	r4,0(r8)
    36d4:	10800044 	addi	r2,r2,1
    36d8:	d8c02015 	stw	r3,128(sp)
    36dc:	d8801f15 	stw	r2,124(sp)
    36e0:	010001c4 	movi	r4,7
    36e4:	20be0b0e 	bge	r4,r2,2f14 <__alt_mem_onchip_memory2_0+0xf8001e74>
    36e8:	d9002d17 	ldw	r4,180(sp)
    36ec:	d9801e04 	addi	r6,sp,120
    36f0:	b80b883a 	mov	r5,r23
    36f4:	0009ce40 	call	9ce4 <__sprint_r>
    36f8:	103c861e 	bne	r2,zero,2914 <__alt_mem_onchip_memory2_0+0xf8001874>
    36fc:	d8c02017 	ldw	r3,128(sp)
    3700:	da000404 	addi	r8,sp,16
    3704:	003e0406 	br	2f18 <__alt_mem_onchip_memory2_0+0xf8001e78>
    3708:	d9002d17 	ldw	r4,180(sp)
    370c:	d9801e04 	addi	r6,sp,120
    3710:	b80b883a 	mov	r5,r23
    3714:	0009ce40 	call	9ce4 <__sprint_r>
    3718:	103e3b26 	beq	r2,zero,3008 <__alt_mem_onchip_memory2_0+0xf8001f68>
    371c:	003c7d06 	br	2914 <__alt_mem_onchip_memory2_0+0xf8001874>
    3720:	d9002d17 	ldw	r4,180(sp)
    3724:	d9801e04 	addi	r6,sp,120
    3728:	b80b883a 	mov	r5,r23
    372c:	0009ce40 	call	9ce4 <__sprint_r>
    3730:	103c781e 	bne	r2,zero,2914 <__alt_mem_onchip_memory2_0+0xf8001874>
    3734:	d8c02017 	ldw	r3,128(sp)
    3738:	da000404 	addi	r8,sp,16
    373c:	003de906 	br	2ee4 <__alt_mem_onchip_memory2_0+0xf8001e44>
    3740:	d9002d17 	ldw	r4,180(sp)
    3744:	d9801e04 	addi	r6,sp,120
    3748:	b80b883a 	mov	r5,r23
    374c:	0009ce40 	call	9ce4 <__sprint_r>
    3750:	103c701e 	bne	r2,zero,2914 <__alt_mem_onchip_memory2_0+0xf8001874>
    3754:	d8c02017 	ldw	r3,128(sp)
    3758:	da000404 	addi	r8,sp,16
    375c:	003d9b06 	br	2dcc <__alt_mem_onchip_memory2_0+0xf8001d2c>
    3760:	d9002d17 	ldw	r4,180(sp)
    3764:	d9801e04 	addi	r6,sp,120
    3768:	b80b883a 	mov	r5,r23
    376c:	0009ce40 	call	9ce4 <__sprint_r>
    3770:	103c681e 	bne	r2,zero,2914 <__alt_mem_onchip_memory2_0+0xf8001874>
    3774:	d8c02017 	ldw	r3,128(sp)
    3778:	da000404 	addi	r8,sp,16
    377c:	003da106 	br	2e04 <__alt_mem_onchip_memory2_0+0xf8001d64>
    3780:	d9402a17 	ldw	r5,168(sp)
    3784:	d8002785 	stb	zero,158(sp)
    3788:	283f0616 	blt	r5,zero,33a4 <__alt_mem_onchip_memory2_0+0xf8002304>
    378c:	00ffdfc4 	movi	r3,-129
    3790:	9d84b03a 	or	r2,r19,r22
    3794:	90e4703a 	and	r18,r18,r3
    3798:	103c3b26 	beq	r2,zero,2888 <__alt_mem_onchip_memory2_0+0xf80017e8>
    379c:	0039883a 	mov	fp,zero
    37a0:	003e5806 	br	3104 <__alt_mem_onchip_memory2_0+0xf8002064>
    37a4:	9080040c 	andi	r2,r18,16
    37a8:	1001b326 	beq	r2,zero,3e78 <___vfprintf_internal_r+0x1974>
    37ac:	d8c02e17 	ldw	r3,184(sp)
    37b0:	d9002a17 	ldw	r4,168(sp)
    37b4:	d8002785 	stb	zero,158(sp)
    37b8:	18800104 	addi	r2,r3,4
    37bc:	1cc00017 	ldw	r19,0(r3)
    37c0:	002d883a 	mov	r22,zero
    37c4:	2001b516 	blt	r4,zero,3e9c <___vfprintf_internal_r+0x1998>
    37c8:	00ffdfc4 	movi	r3,-129
    37cc:	d8802e15 	stw	r2,184(sp)
    37d0:	90e4703a 	and	r18,r18,r3
    37d4:	983d0526 	beq	r19,zero,2bec <__alt_mem_onchip_memory2_0+0xf8001b4c>
    37d8:	0039883a 	mov	fp,zero
    37dc:	003d0806 	br	2c00 <__alt_mem_onchip_memory2_0+0xf8001b60>
    37e0:	dc402617 	ldw	r17,152(sp)
    37e4:	0441d30e 	bge	zero,r17,3f34 <___vfprintf_internal_r+0x1a30>
    37e8:	dc403217 	ldw	r17,200(sp)
    37ec:	d8803317 	ldw	r2,204(sp)
    37f0:	1440010e 	bge	r2,r17,37f8 <___vfprintf_internal_r+0x12f4>
    37f4:	1023883a 	mov	r17,r2
    37f8:	04400a0e 	bge	zero,r17,3824 <___vfprintf_internal_r+0x1320>
    37fc:	d8801f17 	ldw	r2,124(sp)
    3800:	1c47883a 	add	r3,r3,r17
    3804:	44000015 	stw	r16,0(r8)
    3808:	10800044 	addi	r2,r2,1
    380c:	44400115 	stw	r17,4(r8)
    3810:	d8c02015 	stw	r3,128(sp)
    3814:	d8801f15 	stw	r2,124(sp)
    3818:	010001c4 	movi	r4,7
    381c:	20826516 	blt	r4,r2,41b4 <___vfprintf_internal_r+0x1cb0>
    3820:	42000204 	addi	r8,r8,8
    3824:	88026116 	blt	r17,zero,41ac <___vfprintf_internal_r+0x1ca8>
    3828:	d9003217 	ldw	r4,200(sp)
    382c:	2463c83a 	sub	r17,r4,r17
    3830:	04407b0e 	bge	zero,r17,3a20 <___vfprintf_internal_r+0x151c>
    3834:	05800404 	movi	r22,16
    3838:	d8801f17 	ldw	r2,124(sp)
    383c:	b4419d0e 	bge	r22,r17,3eb4 <___vfprintf_internal_r+0x19b0>
    3840:	01000074 	movhi	r4,1
    3844:	21089784 	addi	r4,r4,8798
    3848:	d9002c15 	stw	r4,176(sp)
    384c:	070001c4 	movi	fp,7
    3850:	dcc02d17 	ldw	r19,180(sp)
    3854:	00000306 	br	3864 <___vfprintf_internal_r+0x1360>
    3858:	42000204 	addi	r8,r8,8
    385c:	8c7ffc04 	addi	r17,r17,-16
    3860:	b441970e 	bge	r22,r17,3ec0 <___vfprintf_internal_r+0x19bc>
    3864:	18c00404 	addi	r3,r3,16
    3868:	10800044 	addi	r2,r2,1
    386c:	45000015 	stw	r20,0(r8)
    3870:	45800115 	stw	r22,4(r8)
    3874:	d8c02015 	stw	r3,128(sp)
    3878:	d8801f15 	stw	r2,124(sp)
    387c:	e0bff60e 	bge	fp,r2,3858 <__alt_mem_onchip_memory2_0+0xf80027b8>
    3880:	d9801e04 	addi	r6,sp,120
    3884:	b80b883a 	mov	r5,r23
    3888:	9809883a 	mov	r4,r19
    388c:	0009ce40 	call	9ce4 <__sprint_r>
    3890:	103c201e 	bne	r2,zero,2914 <__alt_mem_onchip_memory2_0+0xf8001874>
    3894:	d8c02017 	ldw	r3,128(sp)
    3898:	d8801f17 	ldw	r2,124(sp)
    389c:	da000404 	addi	r8,sp,16
    38a0:	003fee06 	br	385c <__alt_mem_onchip_memory2_0+0xf80027bc>
    38a4:	d9002d17 	ldw	r4,180(sp)
    38a8:	d9801e04 	addi	r6,sp,120
    38ac:	b80b883a 	mov	r5,r23
    38b0:	0009ce40 	call	9ce4 <__sprint_r>
    38b4:	103c171e 	bne	r2,zero,2914 <__alt_mem_onchip_memory2_0+0xf8001874>
    38b8:	d8c02017 	ldw	r3,128(sp)
    38bc:	df002787 	ldb	fp,158(sp)
    38c0:	da000404 	addi	r8,sp,16
    38c4:	003d3406 	br	2d98 <__alt_mem_onchip_memory2_0+0xf8001cf8>
    38c8:	9080040c 	andi	r2,r18,16
    38cc:	10016126 	beq	r2,zero,3e54 <___vfprintf_internal_r+0x1950>
    38d0:	d9402e17 	ldw	r5,184(sp)
    38d4:	2cc00017 	ldw	r19,0(r5)
    38d8:	29400104 	addi	r5,r5,4
    38dc:	d9402e15 	stw	r5,184(sp)
    38e0:	982dd7fa 	srai	r22,r19,31
    38e4:	b005883a 	mov	r2,r22
    38e8:	003c5a06 	br	2a54 <__alt_mem_onchip_memory2_0+0xf80019b4>
    38ec:	9080040c 	andi	r2,r18,16
    38f0:	10003526 	beq	r2,zero,39c8 <___vfprintf_internal_r+0x14c4>
    38f4:	d8c02e17 	ldw	r3,184(sp)
    38f8:	d9002a17 	ldw	r4,168(sp)
    38fc:	d8002785 	stb	zero,158(sp)
    3900:	18800104 	addi	r2,r3,4
    3904:	1cc00017 	ldw	r19,0(r3)
    3908:	002d883a 	mov	r22,zero
    390c:	20003716 	blt	r4,zero,39ec <___vfprintf_internal_r+0x14e8>
    3910:	00ffdfc4 	movi	r3,-129
    3914:	d8802e15 	stw	r2,184(sp)
    3918:	90e4703a 	and	r18,r18,r3
    391c:	0039883a 	mov	fp,zero
    3920:	983dd426 	beq	r19,zero,3074 <__alt_mem_onchip_memory2_0+0xf8001fd4>
    3924:	00800244 	movi	r2,9
    3928:	14fc5336 	bltu	r2,r19,2a78 <__alt_mem_onchip_memory2_0+0xf80019d8>
    392c:	d8c02817 	ldw	r3,160(sp)
    3930:	dc001dc4 	addi	r16,sp,119
    3934:	9cc00c04 	addi	r19,r19,48
    3938:	1c07c83a 	sub	r3,r3,r16
    393c:	dcc01dc5 	stb	r19,119(sp)
    3940:	d8c02b15 	stw	r3,172(sp)
    3944:	003cc606 	br	2c60 <__alt_mem_onchip_memory2_0+0xf8001bc0>
    3948:	d8803317 	ldw	r2,204(sp)
    394c:	143fffc4 	addi	r16,r2,-1
    3950:	043f4d0e 	bge	zero,r16,3688 <__alt_mem_onchip_memory2_0+0xf80025e8>
    3954:	07000404 	movi	fp,16
    3958:	e400810e 	bge	fp,r16,3b60 <___vfprintf_internal_r+0x165c>
    395c:	01400074 	movhi	r5,1
    3960:	29489784 	addi	r5,r5,8798
    3964:	d9402c15 	stw	r5,176(sp)
    3968:	01c001c4 	movi	r7,7
    396c:	dcc02d17 	ldw	r19,180(sp)
    3970:	00000306 	br	3980 <___vfprintf_internal_r+0x147c>
    3974:	b5800204 	addi	r22,r22,8
    3978:	843ffc04 	addi	r16,r16,-16
    397c:	e4007b0e 	bge	fp,r16,3b6c <___vfprintf_internal_r+0x1668>
    3980:	18c00404 	addi	r3,r3,16
    3984:	8c400044 	addi	r17,r17,1
    3988:	b5000015 	stw	r20,0(r22)
    398c:	b7000115 	stw	fp,4(r22)
    3990:	d8c02015 	stw	r3,128(sp)
    3994:	dc401f15 	stw	r17,124(sp)
    3998:	3c7ff60e 	bge	r7,r17,3974 <__alt_mem_onchip_memory2_0+0xf80028d4>
    399c:	d9801e04 	addi	r6,sp,120
    39a0:	b80b883a 	mov	r5,r23
    39a4:	9809883a 	mov	r4,r19
    39a8:	d9c03c15 	stw	r7,240(sp)
    39ac:	0009ce40 	call	9ce4 <__sprint_r>
    39b0:	d9c03c17 	ldw	r7,240(sp)
    39b4:	103bd71e 	bne	r2,zero,2914 <__alt_mem_onchip_memory2_0+0xf8001874>
    39b8:	d8c02017 	ldw	r3,128(sp)
    39bc:	dc401f17 	ldw	r17,124(sp)
    39c0:	dd800404 	addi	r22,sp,16
    39c4:	003fec06 	br	3978 <__alt_mem_onchip_memory2_0+0xf80028d8>
    39c8:	9080100c 	andi	r2,r18,64
    39cc:	d8002785 	stb	zero,158(sp)
    39d0:	10010e26 	beq	r2,zero,3e0c <___vfprintf_internal_r+0x1908>
    39d4:	d9402e17 	ldw	r5,184(sp)
    39d8:	d8c02a17 	ldw	r3,168(sp)
    39dc:	002d883a 	mov	r22,zero
    39e0:	28800104 	addi	r2,r5,4
    39e4:	2cc0000b 	ldhu	r19,0(r5)
    39e8:	183fc90e 	bge	r3,zero,3910 <__alt_mem_onchip_memory2_0+0xf8002870>
    39ec:	d8802e15 	stw	r2,184(sp)
    39f0:	0039883a 	mov	fp,zero
    39f4:	9d84b03a 	or	r2,r19,r22
    39f8:	103c1e1e 	bne	r2,zero,2a74 <__alt_mem_onchip_memory2_0+0xf80019d4>
    39fc:	00800044 	movi	r2,1
    3a00:	003e6c06 	br	33b4 <__alt_mem_onchip_memory2_0+0xf8002314>
    3a04:	d9002d17 	ldw	r4,180(sp)
    3a08:	d9801e04 	addi	r6,sp,120
    3a0c:	b80b883a 	mov	r5,r23
    3a10:	0009ce40 	call	9ce4 <__sprint_r>
    3a14:	103bbf1e 	bne	r2,zero,2914 <__alt_mem_onchip_memory2_0+0xf8001874>
    3a18:	d8c02017 	ldw	r3,128(sp)
    3a1c:	da000404 	addi	r8,sp,16
    3a20:	d9003217 	ldw	r4,200(sp)
    3a24:	d8802617 	ldw	r2,152(sp)
    3a28:	d9403317 	ldw	r5,204(sp)
    3a2c:	8123883a 	add	r17,r16,r4
    3a30:	11400216 	blt	r2,r5,3a3c <___vfprintf_internal_r+0x1538>
    3a34:	9100004c 	andi	r4,r18,1
    3a38:	20000d26 	beq	r4,zero,3a70 <___vfprintf_internal_r+0x156c>
    3a3c:	d9003717 	ldw	r4,220(sp)
    3a40:	d9403417 	ldw	r5,208(sp)
    3a44:	1907883a 	add	r3,r3,r4
    3a48:	d9001f17 	ldw	r4,124(sp)
    3a4c:	41400015 	stw	r5,0(r8)
    3a50:	d9403717 	ldw	r5,220(sp)
    3a54:	21000044 	addi	r4,r4,1
    3a58:	d8c02015 	stw	r3,128(sp)
    3a5c:	41400115 	stw	r5,4(r8)
    3a60:	d9001f15 	stw	r4,124(sp)
    3a64:	014001c4 	movi	r5,7
    3a68:	2901e816 	blt	r5,r4,420c <___vfprintf_internal_r+0x1d08>
    3a6c:	42000204 	addi	r8,r8,8
    3a70:	d9003317 	ldw	r4,204(sp)
    3a74:	8121883a 	add	r16,r16,r4
    3a78:	2085c83a 	sub	r2,r4,r2
    3a7c:	8461c83a 	sub	r16,r16,r17
    3a80:	1400010e 	bge	r2,r16,3a88 <___vfprintf_internal_r+0x1584>
    3a84:	1021883a 	mov	r16,r2
    3a88:	04000a0e 	bge	zero,r16,3ab4 <___vfprintf_internal_r+0x15b0>
    3a8c:	d9001f17 	ldw	r4,124(sp)
    3a90:	1c07883a 	add	r3,r3,r16
    3a94:	44400015 	stw	r17,0(r8)
    3a98:	21000044 	addi	r4,r4,1
    3a9c:	44000115 	stw	r16,4(r8)
    3aa0:	d8c02015 	stw	r3,128(sp)
    3aa4:	d9001f15 	stw	r4,124(sp)
    3aa8:	014001c4 	movi	r5,7
    3aac:	2901fb16 	blt	r5,r4,429c <___vfprintf_internal_r+0x1d98>
    3ab0:	42000204 	addi	r8,r8,8
    3ab4:	8001f716 	blt	r16,zero,4294 <___vfprintf_internal_r+0x1d90>
    3ab8:	1421c83a 	sub	r16,r2,r16
    3abc:	043d160e 	bge	zero,r16,2f18 <__alt_mem_onchip_memory2_0+0xf8001e78>
    3ac0:	04400404 	movi	r17,16
    3ac4:	d8801f17 	ldw	r2,124(sp)
    3ac8:	8c3efb0e 	bge	r17,r16,36b8 <__alt_mem_onchip_memory2_0+0xf8002618>
    3acc:	01400074 	movhi	r5,1
    3ad0:	29489784 	addi	r5,r5,8798
    3ad4:	d9402c15 	stw	r5,176(sp)
    3ad8:	058001c4 	movi	r22,7
    3adc:	dcc02d17 	ldw	r19,180(sp)
    3ae0:	00000306 	br	3af0 <___vfprintf_internal_r+0x15ec>
    3ae4:	42000204 	addi	r8,r8,8
    3ae8:	843ffc04 	addi	r16,r16,-16
    3aec:	8c3ef50e 	bge	r17,r16,36c4 <__alt_mem_onchip_memory2_0+0xf8002624>
    3af0:	18c00404 	addi	r3,r3,16
    3af4:	10800044 	addi	r2,r2,1
    3af8:	45000015 	stw	r20,0(r8)
    3afc:	44400115 	stw	r17,4(r8)
    3b00:	d8c02015 	stw	r3,128(sp)
    3b04:	d8801f15 	stw	r2,124(sp)
    3b08:	b0bff60e 	bge	r22,r2,3ae4 <__alt_mem_onchip_memory2_0+0xf8002a44>
    3b0c:	d9801e04 	addi	r6,sp,120
    3b10:	b80b883a 	mov	r5,r23
    3b14:	9809883a 	mov	r4,r19
    3b18:	0009ce40 	call	9ce4 <__sprint_r>
    3b1c:	103b7d1e 	bne	r2,zero,2914 <__alt_mem_onchip_memory2_0+0xf8001874>
    3b20:	d8c02017 	ldw	r3,128(sp)
    3b24:	d8801f17 	ldw	r2,124(sp)
    3b28:	da000404 	addi	r8,sp,16
    3b2c:	003fee06 	br	3ae8 <__alt_mem_onchip_memory2_0+0xf8002a48>
    3b30:	9088703a 	and	r4,r18,r2
    3b34:	203eab1e 	bne	r4,zero,35e4 <__alt_mem_onchip_memory2_0+0xf8002544>
    3b38:	dc401f17 	ldw	r17,124(sp)
    3b3c:	40800115 	stw	r2,4(r8)
    3b40:	44000015 	stw	r16,0(r8)
    3b44:	8c400044 	addi	r17,r17,1
    3b48:	d8c02015 	stw	r3,128(sp)
    3b4c:	dc401f15 	stw	r17,124(sp)
    3b50:	008001c4 	movi	r2,7
    3b54:	14400e16 	blt	r2,r17,3b90 <___vfprintf_internal_r+0x168c>
    3b58:	45800204 	addi	r22,r8,8
    3b5c:	003eca06 	br	3688 <__alt_mem_onchip_memory2_0+0xf80025e8>
    3b60:	01000074 	movhi	r4,1
    3b64:	21089784 	addi	r4,r4,8798
    3b68:	d9002c15 	stw	r4,176(sp)
    3b6c:	d8802c17 	ldw	r2,176(sp)
    3b70:	1c07883a 	add	r3,r3,r16
    3b74:	8c400044 	addi	r17,r17,1
    3b78:	b0800015 	stw	r2,0(r22)
    3b7c:	b4000115 	stw	r16,4(r22)
    3b80:	d8c02015 	stw	r3,128(sp)
    3b84:	dc401f15 	stw	r17,124(sp)
    3b88:	008001c4 	movi	r2,7
    3b8c:	147ebd0e 	bge	r2,r17,3684 <__alt_mem_onchip_memory2_0+0xf80025e4>
    3b90:	d9002d17 	ldw	r4,180(sp)
    3b94:	d9801e04 	addi	r6,sp,120
    3b98:	b80b883a 	mov	r5,r23
    3b9c:	0009ce40 	call	9ce4 <__sprint_r>
    3ba0:	103b5c1e 	bne	r2,zero,2914 <__alt_mem_onchip_memory2_0+0xf8001874>
    3ba4:	d8c02017 	ldw	r3,128(sp)
    3ba8:	dc401f17 	ldw	r17,124(sp)
    3bac:	dd800404 	addi	r22,sp,16
    3bb0:	003eb506 	br	3688 <__alt_mem_onchip_memory2_0+0xf80025e8>
    3bb4:	d9002d17 	ldw	r4,180(sp)
    3bb8:	d9801e04 	addi	r6,sp,120
    3bbc:	b80b883a 	mov	r5,r23
    3bc0:	0009ce40 	call	9ce4 <__sprint_r>
    3bc4:	103b531e 	bne	r2,zero,2914 <__alt_mem_onchip_memory2_0+0xf8001874>
    3bc8:	d8c02017 	ldw	r3,128(sp)
    3bcc:	dc401f17 	ldw	r17,124(sp)
    3bd0:	da000404 	addi	r8,sp,16
    3bd4:	003e8d06 	br	360c <__alt_mem_onchip_memory2_0+0xf800256c>
    3bd8:	d9002d17 	ldw	r4,180(sp)
    3bdc:	d9801e04 	addi	r6,sp,120
    3be0:	b80b883a 	mov	r5,r23
    3be4:	0009ce40 	call	9ce4 <__sprint_r>
    3be8:	103b4a1e 	bne	r2,zero,2914 <__alt_mem_onchip_memory2_0+0xf8001874>
    3bec:	d8c02017 	ldw	r3,128(sp)
    3bf0:	dc401f17 	ldw	r17,124(sp)
    3bf4:	dd800404 	addi	r22,sp,16
    3bf8:	003e8f06 	br	3638 <__alt_mem_onchip_memory2_0+0xf8002598>
    3bfc:	0027883a 	mov	r19,zero
    3c00:	003f4a06 	br	392c <__alt_mem_onchip_memory2_0+0xf800288c>
    3c04:	d9002d17 	ldw	r4,180(sp)
    3c08:	d9801e04 	addi	r6,sp,120
    3c0c:	b80b883a 	mov	r5,r23
    3c10:	0009ce40 	call	9ce4 <__sprint_r>
    3c14:	103b3f1e 	bne	r2,zero,2914 <__alt_mem_onchip_memory2_0+0xf8001874>
    3c18:	d8c02017 	ldw	r3,128(sp)
    3c1c:	da000404 	addi	r8,sp,16
    3c20:	003c7b06 	br	2e10 <__alt_mem_onchip_memory2_0+0xf8001d70>
    3c24:	d9402a17 	ldw	r5,168(sp)
    3c28:	04e7c83a 	sub	r19,zero,r19
    3c2c:	07000b44 	movi	fp,45
    3c30:	9804c03a 	cmpne	r2,r19,zero
    3c34:	05adc83a 	sub	r22,zero,r22
    3c38:	df002785 	stb	fp,158(sp)
    3c3c:	b0adc83a 	sub	r22,r22,r2
    3c40:	28017b16 	blt	r5,zero,4230 <___vfprintf_internal_r+0x1d2c>
    3c44:	00bfdfc4 	movi	r2,-129
    3c48:	90a4703a 	and	r18,r18,r2
    3c4c:	003b8906 	br	2a74 <__alt_mem_onchip_memory2_0+0xf80019d4>
    3c50:	d9003617 	ldw	r4,216(sp)
    3c54:	d9403817 	ldw	r5,224(sp)
    3c58:	da003d15 	stw	r8,244(sp)
    3c5c:	00099080 	call	9908 <__fpclassifyd>
    3c60:	da003d17 	ldw	r8,244(sp)
    3c64:	1000f026 	beq	r2,zero,4028 <___vfprintf_internal_r+0x1b24>
    3c68:	d9002a17 	ldw	r4,168(sp)
    3c6c:	05bff7c4 	movi	r22,-33
    3c70:	00bfffc4 	movi	r2,-1
    3c74:	8dac703a 	and	r22,r17,r22
    3c78:	20820026 	beq	r4,r2,447c <___vfprintf_internal_r+0x1f78>
    3c7c:	008011c4 	movi	r2,71
    3c80:	b081f726 	beq	r22,r2,4460 <___vfprintf_internal_r+0x1f5c>
    3c84:	d9003817 	ldw	r4,224(sp)
    3c88:	90c04014 	ori	r3,r18,256
    3c8c:	d8c02c15 	stw	r3,176(sp)
    3c90:	20021516 	blt	r4,zero,44e8 <___vfprintf_internal_r+0x1fe4>
    3c94:	dcc03817 	ldw	r19,224(sp)
    3c98:	d8002905 	stb	zero,164(sp)
    3c9c:	00801984 	movi	r2,102
    3ca0:	8881f926 	beq	r17,r2,4488 <___vfprintf_internal_r+0x1f84>
    3ca4:	00801184 	movi	r2,70
    3ca8:	88821c26 	beq	r17,r2,451c <___vfprintf_internal_r+0x2018>
    3cac:	00801144 	movi	r2,69
    3cb0:	b081ef26 	beq	r22,r2,4470 <___vfprintf_internal_r+0x1f6c>
    3cb4:	d8c02a17 	ldw	r3,168(sp)
    3cb8:	d8802104 	addi	r2,sp,132
    3cbc:	d8800315 	stw	r2,12(sp)
    3cc0:	d9403617 	ldw	r5,216(sp)
    3cc4:	d8802504 	addi	r2,sp,148
    3cc8:	d9002d17 	ldw	r4,180(sp)
    3ccc:	d8800215 	stw	r2,8(sp)
    3cd0:	d8802604 	addi	r2,sp,152
    3cd4:	d8c00015 	stw	r3,0(sp)
    3cd8:	d8800115 	stw	r2,4(sp)
    3cdc:	01c00084 	movi	r7,2
    3ce0:	980d883a 	mov	r6,r19
    3ce4:	d8c03c15 	stw	r3,240(sp)
    3ce8:	da003d15 	stw	r8,244(sp)
    3cec:	0004c340 	call	4c34 <_dtoa_r>
    3cf0:	1021883a 	mov	r16,r2
    3cf4:	008019c4 	movi	r2,103
    3cf8:	d8c03c17 	ldw	r3,240(sp)
    3cfc:	da003d17 	ldw	r8,244(sp)
    3d00:	88817126 	beq	r17,r2,42c8 <___vfprintf_internal_r+0x1dc4>
    3d04:	008011c4 	movi	r2,71
    3d08:	88829126 	beq	r17,r2,4750 <___vfprintf_internal_r+0x224c>
    3d0c:	80f9883a 	add	fp,r16,r3
    3d10:	d9003617 	ldw	r4,216(sp)
    3d14:	000d883a 	mov	r6,zero
    3d18:	000f883a 	mov	r7,zero
    3d1c:	980b883a 	mov	r5,r19
    3d20:	da003d15 	stw	r8,244(sp)
    3d24:	000dc440 	call	dc44 <__eqdf2>
    3d28:	da003d17 	ldw	r8,244(sp)
    3d2c:	10018d26 	beq	r2,zero,4364 <___vfprintf_internal_r+0x1e60>
    3d30:	d8802117 	ldw	r2,132(sp)
    3d34:	1700062e 	bgeu	r2,fp,3d50 <___vfprintf_internal_r+0x184c>
    3d38:	01000c04 	movi	r4,48
    3d3c:	10c00044 	addi	r3,r2,1
    3d40:	d8c02115 	stw	r3,132(sp)
    3d44:	11000005 	stb	r4,0(r2)
    3d48:	d8802117 	ldw	r2,132(sp)
    3d4c:	173ffb36 	bltu	r2,fp,3d3c <__alt_mem_onchip_memory2_0+0xf8002c9c>
    3d50:	1405c83a 	sub	r2,r2,r16
    3d54:	d8803315 	stw	r2,204(sp)
    3d58:	008011c4 	movi	r2,71
    3d5c:	b0817626 	beq	r22,r2,4338 <___vfprintf_internal_r+0x1e34>
    3d60:	00801944 	movi	r2,101
    3d64:	1442800e 	bge	r2,r17,4768 <___vfprintf_internal_r+0x2264>
    3d68:	d8c02617 	ldw	r3,152(sp)
    3d6c:	00801984 	movi	r2,102
    3d70:	d8c03215 	stw	r3,200(sp)
    3d74:	8881fe26 	beq	r17,r2,4570 <___vfprintf_internal_r+0x206c>
    3d78:	d8c03217 	ldw	r3,200(sp)
    3d7c:	d9003317 	ldw	r4,204(sp)
    3d80:	1901dd16 	blt	r3,r4,44f8 <___vfprintf_internal_r+0x1ff4>
    3d84:	9480004c 	andi	r18,r18,1
    3d88:	90022b1e 	bne	r18,zero,4638 <___vfprintf_internal_r+0x2134>
    3d8c:	1805883a 	mov	r2,r3
    3d90:	18028316 	blt	r3,zero,47a0 <___vfprintf_internal_r+0x229c>
    3d94:	d8c03217 	ldw	r3,200(sp)
    3d98:	044019c4 	movi	r17,103
    3d9c:	d8c02b15 	stw	r3,172(sp)
    3da0:	df002907 	ldb	fp,164(sp)
    3da4:	e001531e 	bne	fp,zero,42f4 <___vfprintf_internal_r+0x1df0>
    3da8:	df002783 	ldbu	fp,158(sp)
    3dac:	d8802915 	stw	r2,164(sp)
    3db0:	dc802c17 	ldw	r18,176(sp)
    3db4:	d8002a15 	stw	zero,168(sp)
    3db8:	003baf06 	br	2c78 <__alt_mem_onchip_memory2_0+0xf8001bd8>
    3dbc:	d8c02e17 	ldw	r3,184(sp)
    3dc0:	d9002e17 	ldw	r4,184(sp)
    3dc4:	d9402e17 	ldw	r5,184(sp)
    3dc8:	18c00017 	ldw	r3,0(r3)
    3dcc:	21000117 	ldw	r4,4(r4)
    3dd0:	29400204 	addi	r5,r5,8
    3dd4:	d8c03615 	stw	r3,216(sp)
    3dd8:	d9003815 	stw	r4,224(sp)
    3ddc:	d9402e15 	stw	r5,184(sp)
    3de0:	003b5006 	br	2b24 <__alt_mem_onchip_memory2_0+0xf8001a84>
    3de4:	ac400007 	ldb	r17,0(r21)
    3de8:	003a2806 	br	268c <__alt_mem_onchip_memory2_0+0xf80015ec>
    3dec:	9080100c 	andi	r2,r18,64
    3df0:	1000a826 	beq	r2,zero,4094 <___vfprintf_internal_r+0x1b90>
    3df4:	d8c02e17 	ldw	r3,184(sp)
    3df8:	002d883a 	mov	r22,zero
    3dfc:	1cc0000b 	ldhu	r19,0(r3)
    3e00:	18c00104 	addi	r3,r3,4
    3e04:	d8c02e15 	stw	r3,184(sp)
    3e08:	003caf06 	br	30c8 <__alt_mem_onchip_memory2_0+0xf8002028>
    3e0c:	d9002e17 	ldw	r4,184(sp)
    3e10:	d9402a17 	ldw	r5,168(sp)
    3e14:	002d883a 	mov	r22,zero
    3e18:	20800104 	addi	r2,r4,4
    3e1c:	24c00017 	ldw	r19,0(r4)
    3e20:	283ebb0e 	bge	r5,zero,3910 <__alt_mem_onchip_memory2_0+0xf8002870>
    3e24:	003ef106 	br	39ec <__alt_mem_onchip_memory2_0+0xf800294c>
    3e28:	9080040c 	andi	r2,r18,16
    3e2c:	1000921e 	bne	r2,zero,4078 <___vfprintf_internal_r+0x1b74>
    3e30:	9480100c 	andi	r18,r18,64
    3e34:	90013926 	beq	r18,zero,431c <___vfprintf_internal_r+0x1e18>
    3e38:	d9402e17 	ldw	r5,184(sp)
    3e3c:	d8c02f17 	ldw	r3,188(sp)
    3e40:	28800017 	ldw	r2,0(r5)
    3e44:	29400104 	addi	r5,r5,4
    3e48:	d9402e15 	stw	r5,184(sp)
    3e4c:	10c0000d 	sth	r3,0(r2)
    3e50:	0039e406 	br	25e4 <__alt_mem_onchip_memory2_0+0xf8001544>
    3e54:	9080100c 	andi	r2,r18,64
    3e58:	10008026 	beq	r2,zero,405c <___vfprintf_internal_r+0x1b58>
    3e5c:	d8802e17 	ldw	r2,184(sp)
    3e60:	14c0000f 	ldh	r19,0(r2)
    3e64:	10800104 	addi	r2,r2,4
    3e68:	d8802e15 	stw	r2,184(sp)
    3e6c:	982dd7fa 	srai	r22,r19,31
    3e70:	b005883a 	mov	r2,r22
    3e74:	003af706 	br	2a54 <__alt_mem_onchip_memory2_0+0xf80019b4>
    3e78:	9080100c 	andi	r2,r18,64
    3e7c:	d8002785 	stb	zero,158(sp)
    3e80:	10008a1e 	bne	r2,zero,40ac <___vfprintf_internal_r+0x1ba8>
    3e84:	d9002e17 	ldw	r4,184(sp)
    3e88:	d9402a17 	ldw	r5,168(sp)
    3e8c:	002d883a 	mov	r22,zero
    3e90:	20800104 	addi	r2,r4,4
    3e94:	24c00017 	ldw	r19,0(r4)
    3e98:	283e4b0e 	bge	r5,zero,37c8 <__alt_mem_onchip_memory2_0+0xf8002728>
    3e9c:	9d86b03a 	or	r3,r19,r22
    3ea0:	d8802e15 	stw	r2,184(sp)
    3ea4:	183e4c1e 	bne	r3,zero,37d8 <__alt_mem_onchip_memory2_0+0xf8002738>
    3ea8:	0039883a 	mov	fp,zero
    3eac:	0005883a 	mov	r2,zero
    3eb0:	003d4006 	br	33b4 <__alt_mem_onchip_memory2_0+0xf8002314>
    3eb4:	01400074 	movhi	r5,1
    3eb8:	29489784 	addi	r5,r5,8798
    3ebc:	d9402c15 	stw	r5,176(sp)
    3ec0:	d9402c17 	ldw	r5,176(sp)
    3ec4:	1c47883a 	add	r3,r3,r17
    3ec8:	10800044 	addi	r2,r2,1
    3ecc:	41400015 	stw	r5,0(r8)
    3ed0:	44400115 	stw	r17,4(r8)
    3ed4:	d8c02015 	stw	r3,128(sp)
    3ed8:	d8801f15 	stw	r2,124(sp)
    3edc:	010001c4 	movi	r4,7
    3ee0:	20bec816 	blt	r4,r2,3a04 <__alt_mem_onchip_memory2_0+0xf8002964>
    3ee4:	42000204 	addi	r8,r8,8
    3ee8:	003ecd06 	br	3a20 <__alt_mem_onchip_memory2_0+0xf8002980>
    3eec:	d9002a17 	ldw	r4,168(sp)
    3ef0:	d8002785 	stb	zero,158(sp)
    3ef4:	203d2d16 	blt	r4,zero,33ac <__alt_mem_onchip_memory2_0+0xf800230c>
    3ef8:	00bfdfc4 	movi	r2,-129
    3efc:	90a4703a 	and	r18,r18,r2
    3f00:	003a6106 	br	2888 <__alt_mem_onchip_memory2_0+0xf80017e8>
    3f04:	01000074 	movhi	r4,1
    3f08:	21089784 	addi	r4,r4,8798
    3f0c:	d9002c15 	stw	r4,176(sp)
    3f10:	003bea06 	br	2ebc <__alt_mem_onchip_memory2_0+0xf8001e1c>
    3f14:	d9002d17 	ldw	r4,180(sp)
    3f18:	d9801e04 	addi	r6,sp,120
    3f1c:	b80b883a 	mov	r5,r23
    3f20:	0009ce40 	call	9ce4 <__sprint_r>
    3f24:	103a7b1e 	bne	r2,zero,2914 <__alt_mem_onchip_memory2_0+0xf8001874>
    3f28:	d8c02017 	ldw	r3,128(sp)
    3f2c:	da000404 	addi	r8,sp,16
    3f30:	003d4106 	br	3438 <__alt_mem_onchip_memory2_0+0xf8002398>
    3f34:	d8801f17 	ldw	r2,124(sp)
    3f38:	01400074 	movhi	r5,1
    3f3c:	01000044 	movi	r4,1
    3f40:	18c00044 	addi	r3,r3,1
    3f44:	10800044 	addi	r2,r2,1
    3f48:	29489704 	addi	r5,r5,8796
    3f4c:	41000115 	stw	r4,4(r8)
    3f50:	41400015 	stw	r5,0(r8)
    3f54:	d8c02015 	stw	r3,128(sp)
    3f58:	d8801f15 	stw	r2,124(sp)
    3f5c:	010001c4 	movi	r4,7
    3f60:	20805c16 	blt	r4,r2,40d4 <___vfprintf_internal_r+0x1bd0>
    3f64:	42000204 	addi	r8,r8,8
    3f68:	8800041e 	bne	r17,zero,3f7c <___vfprintf_internal_r+0x1a78>
    3f6c:	d8803317 	ldw	r2,204(sp)
    3f70:	1000021e 	bne	r2,zero,3f7c <___vfprintf_internal_r+0x1a78>
    3f74:	9080004c 	andi	r2,r18,1
    3f78:	103be726 	beq	r2,zero,2f18 <__alt_mem_onchip_memory2_0+0xf8001e78>
    3f7c:	d9003717 	ldw	r4,220(sp)
    3f80:	d8801f17 	ldw	r2,124(sp)
    3f84:	d9403417 	ldw	r5,208(sp)
    3f88:	20c7883a 	add	r3,r4,r3
    3f8c:	10800044 	addi	r2,r2,1
    3f90:	41000115 	stw	r4,4(r8)
    3f94:	41400015 	stw	r5,0(r8)
    3f98:	d8c02015 	stw	r3,128(sp)
    3f9c:	d8801f15 	stw	r2,124(sp)
    3fa0:	010001c4 	movi	r4,7
    3fa4:	20812116 	blt	r4,r2,442c <___vfprintf_internal_r+0x1f28>
    3fa8:	42000204 	addi	r8,r8,8
    3fac:	0463c83a 	sub	r17,zero,r17
    3fb0:	0440730e 	bge	zero,r17,4180 <___vfprintf_internal_r+0x1c7c>
    3fb4:	05800404 	movi	r22,16
    3fb8:	b440860e 	bge	r22,r17,41d4 <___vfprintf_internal_r+0x1cd0>
    3fbc:	01400074 	movhi	r5,1
    3fc0:	29489784 	addi	r5,r5,8798
    3fc4:	d9402c15 	stw	r5,176(sp)
    3fc8:	070001c4 	movi	fp,7
    3fcc:	dcc02d17 	ldw	r19,180(sp)
    3fd0:	00000306 	br	3fe0 <___vfprintf_internal_r+0x1adc>
    3fd4:	42000204 	addi	r8,r8,8
    3fd8:	8c7ffc04 	addi	r17,r17,-16
    3fdc:	b440800e 	bge	r22,r17,41e0 <___vfprintf_internal_r+0x1cdc>
    3fe0:	18c00404 	addi	r3,r3,16
    3fe4:	10800044 	addi	r2,r2,1
    3fe8:	45000015 	stw	r20,0(r8)
    3fec:	45800115 	stw	r22,4(r8)
    3ff0:	d8c02015 	stw	r3,128(sp)
    3ff4:	d8801f15 	stw	r2,124(sp)
    3ff8:	e0bff60e 	bge	fp,r2,3fd4 <__alt_mem_onchip_memory2_0+0xf8002f34>
    3ffc:	d9801e04 	addi	r6,sp,120
    4000:	b80b883a 	mov	r5,r23
    4004:	9809883a 	mov	r4,r19
    4008:	0009ce40 	call	9ce4 <__sprint_r>
    400c:	103a411e 	bne	r2,zero,2914 <__alt_mem_onchip_memory2_0+0xf8001874>
    4010:	d8c02017 	ldw	r3,128(sp)
    4014:	d8801f17 	ldw	r2,124(sp)
    4018:	da000404 	addi	r8,sp,16
    401c:	003fee06 	br	3fd8 <__alt_mem_onchip_memory2_0+0xf8002f38>
    4020:	00bfffc4 	movi	r2,-1
    4024:	003a3f06 	br	2924 <__alt_mem_onchip_memory2_0+0xf8001884>
    4028:	008011c4 	movi	r2,71
    402c:	1440b816 	blt	r2,r17,4310 <___vfprintf_internal_r+0x1e0c>
    4030:	04000074 	movhi	r16,1
    4034:	84088904 	addi	r16,r16,8740
    4038:	00c000c4 	movi	r3,3
    403c:	00bfdfc4 	movi	r2,-129
    4040:	d8c02915 	stw	r3,164(sp)
    4044:	90a4703a 	and	r18,r18,r2
    4048:	df002783 	ldbu	fp,158(sp)
    404c:	d8c02b15 	stw	r3,172(sp)
    4050:	d8002a15 	stw	zero,168(sp)
    4054:	d8003215 	stw	zero,200(sp)
    4058:	003b0706 	br	2c78 <__alt_mem_onchip_memory2_0+0xf8001bd8>
    405c:	d8c02e17 	ldw	r3,184(sp)
    4060:	1cc00017 	ldw	r19,0(r3)
    4064:	18c00104 	addi	r3,r3,4
    4068:	d8c02e15 	stw	r3,184(sp)
    406c:	982dd7fa 	srai	r22,r19,31
    4070:	b005883a 	mov	r2,r22
    4074:	003a7706 	br	2a54 <__alt_mem_onchip_memory2_0+0xf80019b4>
    4078:	d8c02e17 	ldw	r3,184(sp)
    407c:	d9002f17 	ldw	r4,188(sp)
    4080:	18800017 	ldw	r2,0(r3)
    4084:	18c00104 	addi	r3,r3,4
    4088:	d8c02e15 	stw	r3,184(sp)
    408c:	11000015 	stw	r4,0(r2)
    4090:	00395406 	br	25e4 <__alt_mem_onchip_memory2_0+0xf8001544>
    4094:	d9002e17 	ldw	r4,184(sp)
    4098:	002d883a 	mov	r22,zero
    409c:	24c00017 	ldw	r19,0(r4)
    40a0:	21000104 	addi	r4,r4,4
    40a4:	d9002e15 	stw	r4,184(sp)
    40a8:	003c0706 	br	30c8 <__alt_mem_onchip_memory2_0+0xf8002028>
    40ac:	d9402e17 	ldw	r5,184(sp)
    40b0:	d8c02a17 	ldw	r3,168(sp)
    40b4:	002d883a 	mov	r22,zero
    40b8:	28800104 	addi	r2,r5,4
    40bc:	2cc0000b 	ldhu	r19,0(r5)
    40c0:	183dc10e 	bge	r3,zero,37c8 <__alt_mem_onchip_memory2_0+0xf8002728>
    40c4:	003f7506 	br	3e9c <__alt_mem_onchip_memory2_0+0xf8002dfc>
    40c8:	04000074 	movhi	r16,1
    40cc:	84088704 	addi	r16,r16,8732
    40d0:	003aa706 	br	2b70 <__alt_mem_onchip_memory2_0+0xf8001ad0>
    40d4:	d9002d17 	ldw	r4,180(sp)
    40d8:	d9801e04 	addi	r6,sp,120
    40dc:	b80b883a 	mov	r5,r23
    40e0:	0009ce40 	call	9ce4 <__sprint_r>
    40e4:	103a0b1e 	bne	r2,zero,2914 <__alt_mem_onchip_memory2_0+0xf8001874>
    40e8:	dc402617 	ldw	r17,152(sp)
    40ec:	d8c02017 	ldw	r3,128(sp)
    40f0:	da000404 	addi	r8,sp,16
    40f4:	003f9c06 	br	3f68 <__alt_mem_onchip_memory2_0+0xf8002ec8>
    40f8:	ac400043 	ldbu	r17,1(r21)
    40fc:	84000814 	ori	r16,r16,32
    4100:	ad400044 	addi	r21,r21,1
    4104:	8c403fcc 	andi	r17,r17,255
    4108:	8c40201c 	xori	r17,r17,128
    410c:	8c7fe004 	addi	r17,r17,-128
    4110:	00395e06 	br	268c <__alt_mem_onchip_memory2_0+0xf80015ec>
    4114:	d8c02e15 	stw	r3,184(sp)
    4118:	0039883a 	mov	fp,zero
    411c:	003e3506 	br	39f4 <__alt_mem_onchip_memory2_0+0xf8002954>
    4120:	d9002d17 	ldw	r4,180(sp)
    4124:	d9801e04 	addi	r6,sp,120
    4128:	b80b883a 	mov	r5,r23
    412c:	0009ce40 	call	9ce4 <__sprint_r>
    4130:	1039f81e 	bne	r2,zero,2914 <__alt_mem_onchip_memory2_0+0xf8001874>
    4134:	d8c02017 	ldw	r3,128(sp)
    4138:	da000404 	addi	r8,sp,16
    413c:	003cd006 	br	3480 <__alt_mem_onchip_memory2_0+0xf80023e0>
    4140:	8009883a 	mov	r4,r16
    4144:	df003d15 	stw	fp,244(sp)
    4148:	000246c0 	call	246c <strlen>
    414c:	d8802b15 	stw	r2,172(sp)
    4150:	da003d17 	ldw	r8,244(sp)
    4154:	103c200e 	bge	r2,zero,31d8 <__alt_mem_onchip_memory2_0+0xf8002138>
    4158:	0005883a 	mov	r2,zero
    415c:	003c1e06 	br	31d8 <__alt_mem_onchip_memory2_0+0xf8002138>
    4160:	d9002d17 	ldw	r4,180(sp)
    4164:	d9801e04 	addi	r6,sp,120
    4168:	b80b883a 	mov	r5,r23
    416c:	0009ce40 	call	9ce4 <__sprint_r>
    4170:	1039e81e 	bne	r2,zero,2914 <__alt_mem_onchip_memory2_0+0xf8001874>
    4174:	d8c02017 	ldw	r3,128(sp)
    4178:	d8801f17 	ldw	r2,124(sp)
    417c:	da000404 	addi	r8,sp,16
    4180:	d9403317 	ldw	r5,204(sp)
    4184:	10800044 	addi	r2,r2,1
    4188:	44000015 	stw	r16,0(r8)
    418c:	28c7883a 	add	r3,r5,r3
    4190:	003b5b06 	br	2f00 <__alt_mem_onchip_memory2_0+0xf8001e60>
    4194:	01000074 	movhi	r4,1
    4198:	21089b84 	addi	r4,r4,8814
    419c:	d9003515 	stw	r4,212(sp)
    41a0:	003af206 	br	2d6c <__alt_mem_onchip_memory2_0+0xf8001ccc>
    41a4:	013fffc4 	movi	r4,-1
    41a8:	003a0806 	br	29cc <__alt_mem_onchip_memory2_0+0xf800192c>
    41ac:	0023883a 	mov	r17,zero
    41b0:	003d9d06 	br	3828 <__alt_mem_onchip_memory2_0+0xf8002788>
    41b4:	d9002d17 	ldw	r4,180(sp)
    41b8:	d9801e04 	addi	r6,sp,120
    41bc:	b80b883a 	mov	r5,r23
    41c0:	0009ce40 	call	9ce4 <__sprint_r>
    41c4:	1039d31e 	bne	r2,zero,2914 <__alt_mem_onchip_memory2_0+0xf8001874>
    41c8:	d8c02017 	ldw	r3,128(sp)
    41cc:	da000404 	addi	r8,sp,16
    41d0:	003d9406 	br	3824 <__alt_mem_onchip_memory2_0+0xf8002784>
    41d4:	01000074 	movhi	r4,1
    41d8:	21089784 	addi	r4,r4,8798
    41dc:	d9002c15 	stw	r4,176(sp)
    41e0:	d9002c17 	ldw	r4,176(sp)
    41e4:	1c47883a 	add	r3,r3,r17
    41e8:	10800044 	addi	r2,r2,1
    41ec:	41000015 	stw	r4,0(r8)
    41f0:	44400115 	stw	r17,4(r8)
    41f4:	d8c02015 	stw	r3,128(sp)
    41f8:	d8801f15 	stw	r2,124(sp)
    41fc:	010001c4 	movi	r4,7
    4200:	20bfd716 	blt	r4,r2,4160 <__alt_mem_onchip_memory2_0+0xf80030c0>
    4204:	42000204 	addi	r8,r8,8
    4208:	003fdd06 	br	4180 <__alt_mem_onchip_memory2_0+0xf80030e0>
    420c:	d9002d17 	ldw	r4,180(sp)
    4210:	d9801e04 	addi	r6,sp,120
    4214:	b80b883a 	mov	r5,r23
    4218:	0009ce40 	call	9ce4 <__sprint_r>
    421c:	1039bd1e 	bne	r2,zero,2914 <__alt_mem_onchip_memory2_0+0xf8001874>
    4220:	d8802617 	ldw	r2,152(sp)
    4224:	d8c02017 	ldw	r3,128(sp)
    4228:	da000404 	addi	r8,sp,16
    422c:	003e1006 	br	3a70 <__alt_mem_onchip_memory2_0+0xf80029d0>
    4230:	00800044 	movi	r2,1
    4234:	10803fcc 	andi	r2,r2,255
    4238:	00c00044 	movi	r3,1
    423c:	10fa0d26 	beq	r2,r3,2a74 <__alt_mem_onchip_memory2_0+0xf80019d4>
    4240:	00c00084 	movi	r3,2
    4244:	10fbaf26 	beq	r2,r3,3104 <__alt_mem_onchip_memory2_0+0xf8002064>
    4248:	003a6d06 	br	2c00 <__alt_mem_onchip_memory2_0+0xf8001b60>
    424c:	01000074 	movhi	r4,1
    4250:	21089b84 	addi	r4,r4,8814
    4254:	d9003515 	stw	r4,212(sp)
    4258:	003b5406 	br	2fac <__alt_mem_onchip_memory2_0+0xf8001f0c>
    425c:	d8802a17 	ldw	r2,168(sp)
    4260:	00c00184 	movi	r3,6
    4264:	1880012e 	bgeu	r3,r2,426c <___vfprintf_internal_r+0x1d68>
    4268:	1805883a 	mov	r2,r3
    426c:	d8802b15 	stw	r2,172(sp)
    4270:	1000ef16 	blt	r2,zero,4630 <___vfprintf_internal_r+0x212c>
    4274:	04000074 	movhi	r16,1
    4278:	d8802915 	stw	r2,164(sp)
    427c:	dcc02e15 	stw	r19,184(sp)
    4280:	d8002a15 	stw	zero,168(sp)
    4284:	d8003215 	stw	zero,200(sp)
    4288:	84089504 	addi	r16,r16,8788
    428c:	0039883a 	mov	fp,zero
    4290:	003a8006 	br	2c94 <__alt_mem_onchip_memory2_0+0xf8001bf4>
    4294:	0021883a 	mov	r16,zero
    4298:	003e0706 	br	3ab8 <__alt_mem_onchip_memory2_0+0xf8002a18>
    429c:	d9002d17 	ldw	r4,180(sp)
    42a0:	d9801e04 	addi	r6,sp,120
    42a4:	b80b883a 	mov	r5,r23
    42a8:	0009ce40 	call	9ce4 <__sprint_r>
    42ac:	1039991e 	bne	r2,zero,2914 <__alt_mem_onchip_memory2_0+0xf8001874>
    42b0:	d8802617 	ldw	r2,152(sp)
    42b4:	d9403317 	ldw	r5,204(sp)
    42b8:	d8c02017 	ldw	r3,128(sp)
    42bc:	da000404 	addi	r8,sp,16
    42c0:	2885c83a 	sub	r2,r5,r2
    42c4:	003dfb06 	br	3ab4 <__alt_mem_onchip_memory2_0+0xf8002a14>
    42c8:	9080004c 	andi	r2,r18,1
    42cc:	103e8f1e 	bne	r2,zero,3d0c <__alt_mem_onchip_memory2_0+0xf8002c6c>
    42d0:	d8802117 	ldw	r2,132(sp)
    42d4:	003e9e06 	br	3d50 <__alt_mem_onchip_memory2_0+0xf8002cb0>
    42d8:	1025883a 	mov	r18,r2
    42dc:	0039883a 	mov	fp,zero
    42e0:	00800084 	movi	r2,2
    42e4:	003fd306 	br	4234 <__alt_mem_onchip_memory2_0+0xf8003194>
    42e8:	07000b44 	movi	fp,45
    42ec:	df002785 	stb	fp,158(sp)
    42f0:	003a1b06 	br	2b60 <__alt_mem_onchip_memory2_0+0xf8001ac0>
    42f4:	00c00b44 	movi	r3,45
    42f8:	d8c02785 	stb	r3,158(sp)
    42fc:	d8802915 	stw	r2,164(sp)
    4300:	dc802c17 	ldw	r18,176(sp)
    4304:	d8002a15 	stw	zero,168(sp)
    4308:	07000b44 	movi	fp,45
    430c:	003a5e06 	br	2c88 <__alt_mem_onchip_memory2_0+0xf8001be8>
    4310:	04000074 	movhi	r16,1
    4314:	84088a04 	addi	r16,r16,8744
    4318:	003f4706 	br	4038 <__alt_mem_onchip_memory2_0+0xf8002f98>
    431c:	d9002e17 	ldw	r4,184(sp)
    4320:	d9402f17 	ldw	r5,188(sp)
    4324:	20800017 	ldw	r2,0(r4)
    4328:	21000104 	addi	r4,r4,4
    432c:	d9002e15 	stw	r4,184(sp)
    4330:	11400015 	stw	r5,0(r2)
    4334:	0038ab06 	br	25e4 <__alt_mem_onchip_memory2_0+0xf8001544>
    4338:	dd802617 	ldw	r22,152(sp)
    433c:	00bfff44 	movi	r2,-3
    4340:	b0801c16 	blt	r22,r2,43b4 <___vfprintf_internal_r+0x1eb0>
    4344:	d9402a17 	ldw	r5,168(sp)
    4348:	2d801a16 	blt	r5,r22,43b4 <___vfprintf_internal_r+0x1eb0>
    434c:	dd803215 	stw	r22,200(sp)
    4350:	003e8906 	br	3d78 <__alt_mem_onchip_memory2_0+0xf8002cd8>
    4354:	01000074 	movhi	r4,1
    4358:	21089784 	addi	r4,r4,8798
    435c:	d9002c15 	stw	r4,176(sp)
    4360:	003c9106 	br	35a8 <__alt_mem_onchip_memory2_0+0xf8002508>
    4364:	e005883a 	mov	r2,fp
    4368:	003e7906 	br	3d50 <__alt_mem_onchip_memory2_0+0xf8002cb0>
    436c:	d9002a17 	ldw	r4,168(sp)
    4370:	df002783 	ldbu	fp,158(sp)
    4374:	dcc02e15 	stw	r19,184(sp)
    4378:	d9002915 	stw	r4,164(sp)
    437c:	d9002b15 	stw	r4,172(sp)
    4380:	d8002a15 	stw	zero,168(sp)
    4384:	d8003215 	stw	zero,200(sp)
    4388:	003a3b06 	br	2c78 <__alt_mem_onchip_memory2_0+0xf8001bd8>
    438c:	9080004c 	andi	r2,r18,1
    4390:	0039883a 	mov	fp,zero
    4394:	10000426 	beq	r2,zero,43a8 <___vfprintf_internal_r+0x1ea4>
    4398:	00800c04 	movi	r2,48
    439c:	dc001dc4 	addi	r16,sp,119
    43a0:	d8801dc5 	stb	r2,119(sp)
    43a4:	003b6406 	br	3138 <__alt_mem_onchip_memory2_0+0xf8002098>
    43a8:	d8002b15 	stw	zero,172(sp)
    43ac:	dc001e04 	addi	r16,sp,120
    43b0:	003a2b06 	br	2c60 <__alt_mem_onchip_memory2_0+0xf8001bc0>
    43b4:	8c7fff84 	addi	r17,r17,-2
    43b8:	b5bfffc4 	addi	r22,r22,-1
    43bc:	dd802615 	stw	r22,152(sp)
    43c0:	dc4022c5 	stb	r17,139(sp)
    43c4:	b000bf16 	blt	r22,zero,46c4 <___vfprintf_internal_r+0x21c0>
    43c8:	00800ac4 	movi	r2,43
    43cc:	d8802305 	stb	r2,140(sp)
    43d0:	00800244 	movi	r2,9
    43d4:	15807016 	blt	r2,r22,4598 <___vfprintf_internal_r+0x2094>
    43d8:	00800c04 	movi	r2,48
    43dc:	b5800c04 	addi	r22,r22,48
    43e0:	d8802345 	stb	r2,141(sp)
    43e4:	dd802385 	stb	r22,142(sp)
    43e8:	d88023c4 	addi	r2,sp,143
    43ec:	df0022c4 	addi	fp,sp,139
    43f0:	d8c03317 	ldw	r3,204(sp)
    43f4:	1739c83a 	sub	fp,r2,fp
    43f8:	d9003317 	ldw	r4,204(sp)
    43fc:	e0c7883a 	add	r3,fp,r3
    4400:	df003a15 	stw	fp,232(sp)
    4404:	d8c02b15 	stw	r3,172(sp)
    4408:	00800044 	movi	r2,1
    440c:	1100b30e 	bge	r2,r4,46dc <___vfprintf_internal_r+0x21d8>
    4410:	d8c02b17 	ldw	r3,172(sp)
    4414:	18c00044 	addi	r3,r3,1
    4418:	d8c02b15 	stw	r3,172(sp)
    441c:	1805883a 	mov	r2,r3
    4420:	1800ac16 	blt	r3,zero,46d4 <___vfprintf_internal_r+0x21d0>
    4424:	d8003215 	stw	zero,200(sp)
    4428:	003e5d06 	br	3da0 <__alt_mem_onchip_memory2_0+0xf8002d00>
    442c:	d9002d17 	ldw	r4,180(sp)
    4430:	d9801e04 	addi	r6,sp,120
    4434:	b80b883a 	mov	r5,r23
    4438:	0009ce40 	call	9ce4 <__sprint_r>
    443c:	1039351e 	bne	r2,zero,2914 <__alt_mem_onchip_memory2_0+0xf8001874>
    4440:	dc402617 	ldw	r17,152(sp)
    4444:	d8c02017 	ldw	r3,128(sp)
    4448:	d8801f17 	ldw	r2,124(sp)
    444c:	da000404 	addi	r8,sp,16
    4450:	003ed606 	br	3fac <__alt_mem_onchip_memory2_0+0xf8002f0c>
    4454:	182b883a 	mov	r21,r3
    4458:	d8002a15 	stw	zero,168(sp)
    445c:	00388c06 	br	2690 <__alt_mem_onchip_memory2_0+0xf80015f0>
    4460:	d8802a17 	ldw	r2,168(sp)
    4464:	103e071e 	bne	r2,zero,3c84 <__alt_mem_onchip_memory2_0+0xf8002be4>
    4468:	dc002a15 	stw	r16,168(sp)
    446c:	003e0506 	br	3c84 <__alt_mem_onchip_memory2_0+0xf8002be4>
    4470:	d9002a17 	ldw	r4,168(sp)
    4474:	20c00044 	addi	r3,r4,1
    4478:	003e0f06 	br	3cb8 <__alt_mem_onchip_memory2_0+0xf8002c18>
    447c:	01400184 	movi	r5,6
    4480:	d9402a15 	stw	r5,168(sp)
    4484:	003dff06 	br	3c84 <__alt_mem_onchip_memory2_0+0xf8002be4>
    4488:	d8802104 	addi	r2,sp,132
    448c:	d8800315 	stw	r2,12(sp)
    4490:	d8802504 	addi	r2,sp,148
    4494:	d8800215 	stw	r2,8(sp)
    4498:	d8802604 	addi	r2,sp,152
    449c:	d8800115 	stw	r2,4(sp)
    44a0:	d8802a17 	ldw	r2,168(sp)
    44a4:	d9403617 	ldw	r5,216(sp)
    44a8:	d9002d17 	ldw	r4,180(sp)
    44ac:	d8800015 	stw	r2,0(sp)
    44b0:	01c000c4 	movi	r7,3
    44b4:	980d883a 	mov	r6,r19
    44b8:	da003d15 	stw	r8,244(sp)
    44bc:	0004c340 	call	4c34 <_dtoa_r>
    44c0:	d8c02a17 	ldw	r3,168(sp)
    44c4:	da003d17 	ldw	r8,244(sp)
    44c8:	1021883a 	mov	r16,r2
    44cc:	10f9883a 	add	fp,r2,r3
    44d0:	81000007 	ldb	r4,0(r16)
    44d4:	00800c04 	movi	r2,48
    44d8:	20805e26 	beq	r4,r2,4654 <___vfprintf_internal_r+0x2150>
    44dc:	d8c02617 	ldw	r3,152(sp)
    44e0:	e0f9883a 	add	fp,fp,r3
    44e4:	003e0a06 	br	3d10 <__alt_mem_onchip_memory2_0+0xf8002c70>
    44e8:	00c00b44 	movi	r3,45
    44ec:	24e0003c 	xorhi	r19,r4,32768
    44f0:	d8c02905 	stb	r3,164(sp)
    44f4:	003de906 	br	3c9c <__alt_mem_onchip_memory2_0+0xf8002bfc>
    44f8:	d8c03217 	ldw	r3,200(sp)
    44fc:	00c07a0e 	bge	zero,r3,46e8 <___vfprintf_internal_r+0x21e4>
    4500:	00800044 	movi	r2,1
    4504:	d9003317 	ldw	r4,204(sp)
    4508:	1105883a 	add	r2,r2,r4
    450c:	d8802b15 	stw	r2,172(sp)
    4510:	10004e16 	blt	r2,zero,464c <___vfprintf_internal_r+0x2148>
    4514:	044019c4 	movi	r17,103
    4518:	003e2106 	br	3da0 <__alt_mem_onchip_memory2_0+0xf8002d00>
    451c:	d9002a17 	ldw	r4,168(sp)
    4520:	d8802104 	addi	r2,sp,132
    4524:	d8800315 	stw	r2,12(sp)
    4528:	d9000015 	stw	r4,0(sp)
    452c:	d8802504 	addi	r2,sp,148
    4530:	d9403617 	ldw	r5,216(sp)
    4534:	d9002d17 	ldw	r4,180(sp)
    4538:	d8800215 	stw	r2,8(sp)
    453c:	d8802604 	addi	r2,sp,152
    4540:	d8800115 	stw	r2,4(sp)
    4544:	01c000c4 	movi	r7,3
    4548:	980d883a 	mov	r6,r19
    454c:	da003d15 	stw	r8,244(sp)
    4550:	0004c340 	call	4c34 <_dtoa_r>
    4554:	d8c02a17 	ldw	r3,168(sp)
    4558:	da003d17 	ldw	r8,244(sp)
    455c:	1021883a 	mov	r16,r2
    4560:	00801184 	movi	r2,70
    4564:	80f9883a 	add	fp,r16,r3
    4568:	88bfd926 	beq	r17,r2,44d0 <__alt_mem_onchip_memory2_0+0xf8003430>
    456c:	003de806 	br	3d10 <__alt_mem_onchip_memory2_0+0xf8002c70>
    4570:	d9002a17 	ldw	r4,168(sp)
    4574:	00c04d0e 	bge	zero,r3,46ac <___vfprintf_internal_r+0x21a8>
    4578:	2000441e 	bne	r4,zero,468c <___vfprintf_internal_r+0x2188>
    457c:	9480004c 	andi	r18,r18,1
    4580:	9000421e 	bne	r18,zero,468c <___vfprintf_internal_r+0x2188>
    4584:	1805883a 	mov	r2,r3
    4588:	18006f16 	blt	r3,zero,4748 <___vfprintf_internal_r+0x2244>
    458c:	d8c03217 	ldw	r3,200(sp)
    4590:	d8c02b15 	stw	r3,172(sp)
    4594:	003e0206 	br	3da0 <__alt_mem_onchip_memory2_0+0xf8002d00>
    4598:	df0022c4 	addi	fp,sp,139
    459c:	dc002a15 	stw	r16,168(sp)
    45a0:	4027883a 	mov	r19,r8
    45a4:	e021883a 	mov	r16,fp
    45a8:	b009883a 	mov	r4,r22
    45ac:	01400284 	movi	r5,10
    45b0:	000c8700 	call	c870 <__modsi3>
    45b4:	10800c04 	addi	r2,r2,48
    45b8:	843fffc4 	addi	r16,r16,-1
    45bc:	b009883a 	mov	r4,r22
    45c0:	01400284 	movi	r5,10
    45c4:	80800005 	stb	r2,0(r16)
    45c8:	000c7ec0 	call	c7ec <__divsi3>
    45cc:	102d883a 	mov	r22,r2
    45d0:	00800244 	movi	r2,9
    45d4:	15bff416 	blt	r2,r22,45a8 <__alt_mem_onchip_memory2_0+0xf8003508>
    45d8:	9811883a 	mov	r8,r19
    45dc:	b0800c04 	addi	r2,r22,48
    45e0:	8027883a 	mov	r19,r16
    45e4:	997fffc4 	addi	r5,r19,-1
    45e8:	98bfffc5 	stb	r2,-1(r19)
    45ec:	dc002a17 	ldw	r16,168(sp)
    45f0:	2f006d2e 	bgeu	r5,fp,47a8 <___vfprintf_internal_r+0x22a4>
    45f4:	d9c02384 	addi	r7,sp,142
    45f8:	3ccfc83a 	sub	r7,r7,r19
    45fc:	d9002344 	addi	r4,sp,141
    4600:	e1cf883a 	add	r7,fp,r7
    4604:	00000106 	br	460c <___vfprintf_internal_r+0x2108>
    4608:	28800003 	ldbu	r2,0(r5)
    460c:	20800005 	stb	r2,0(r4)
    4610:	21000044 	addi	r4,r4,1
    4614:	29400044 	addi	r5,r5,1
    4618:	393ffb1e 	bne	r7,r4,4608 <__alt_mem_onchip_memory2_0+0xf8003568>
    461c:	d8802304 	addi	r2,sp,140
    4620:	14c5c83a 	sub	r2,r2,r19
    4624:	d8c02344 	addi	r3,sp,141
    4628:	1885883a 	add	r2,r3,r2
    462c:	003f7006 	br	43f0 <__alt_mem_onchip_memory2_0+0xf8003350>
    4630:	0005883a 	mov	r2,zero
    4634:	003f0f06 	br	4274 <__alt_mem_onchip_memory2_0+0xf80031d4>
    4638:	d8c03217 	ldw	r3,200(sp)
    463c:	18c00044 	addi	r3,r3,1
    4640:	d8c02b15 	stw	r3,172(sp)
    4644:	1805883a 	mov	r2,r3
    4648:	183fb20e 	bge	r3,zero,4514 <__alt_mem_onchip_memory2_0+0xf8003474>
    464c:	0005883a 	mov	r2,zero
    4650:	003fb006 	br	4514 <__alt_mem_onchip_memory2_0+0xf8003474>
    4654:	d9003617 	ldw	r4,216(sp)
    4658:	000d883a 	mov	r6,zero
    465c:	000f883a 	mov	r7,zero
    4660:	980b883a 	mov	r5,r19
    4664:	d8c03c15 	stw	r3,240(sp)
    4668:	da003d15 	stw	r8,244(sp)
    466c:	000dc440 	call	dc44 <__eqdf2>
    4670:	d8c03c17 	ldw	r3,240(sp)
    4674:	da003d17 	ldw	r8,244(sp)
    4678:	103f9826 	beq	r2,zero,44dc <__alt_mem_onchip_memory2_0+0xf800343c>
    467c:	00800044 	movi	r2,1
    4680:	10c7c83a 	sub	r3,r2,r3
    4684:	d8c02615 	stw	r3,152(sp)
    4688:	003f9506 	br	44e0 <__alt_mem_onchip_memory2_0+0xf8003440>
    468c:	d9002a17 	ldw	r4,168(sp)
    4690:	d8c03217 	ldw	r3,200(sp)
    4694:	20800044 	addi	r2,r4,1
    4698:	1885883a 	add	r2,r3,r2
    469c:	d8802b15 	stw	r2,172(sp)
    46a0:	103dbf0e 	bge	r2,zero,3da0 <__alt_mem_onchip_memory2_0+0xf8002d00>
    46a4:	0005883a 	mov	r2,zero
    46a8:	003dbd06 	br	3da0 <__alt_mem_onchip_memory2_0+0xf8002d00>
    46ac:	2000201e 	bne	r4,zero,4730 <___vfprintf_internal_r+0x222c>
    46b0:	9480004c 	andi	r18,r18,1
    46b4:	90001e1e 	bne	r18,zero,4730 <___vfprintf_internal_r+0x222c>
    46b8:	00800044 	movi	r2,1
    46bc:	d8802b15 	stw	r2,172(sp)
    46c0:	003db706 	br	3da0 <__alt_mem_onchip_memory2_0+0xf8002d00>
    46c4:	00800b44 	movi	r2,45
    46c8:	05adc83a 	sub	r22,zero,r22
    46cc:	d8802305 	stb	r2,140(sp)
    46d0:	003f3f06 	br	43d0 <__alt_mem_onchip_memory2_0+0xf8003330>
    46d4:	0005883a 	mov	r2,zero
    46d8:	003f5206 	br	4424 <__alt_mem_onchip_memory2_0+0xf8003384>
    46dc:	90a4703a 	and	r18,r18,r2
    46e0:	903f4e26 	beq	r18,zero,441c <__alt_mem_onchip_memory2_0+0xf800337c>
    46e4:	003f4a06 	br	4410 <__alt_mem_onchip_memory2_0+0xf8003370>
    46e8:	00800084 	movi	r2,2
    46ec:	10c5c83a 	sub	r2,r2,r3
    46f0:	003f8406 	br	4504 <__alt_mem_onchip_memory2_0+0xf8003464>
    46f4:	d9402e17 	ldw	r5,184(sp)
    46f8:	d9002e17 	ldw	r4,184(sp)
    46fc:	ac400043 	ldbu	r17,1(r21)
    4700:	29400017 	ldw	r5,0(r5)
    4704:	20800104 	addi	r2,r4,4
    4708:	d8802e15 	stw	r2,184(sp)
    470c:	d9402a15 	stw	r5,168(sp)
    4710:	182b883a 	mov	r21,r3
    4714:	283e7b0e 	bge	r5,zero,4104 <__alt_mem_onchip_memory2_0+0xf8003064>
    4718:	8c403fcc 	andi	r17,r17,255
    471c:	017fffc4 	movi	r5,-1
    4720:	8c40201c 	xori	r17,r17,128
    4724:	d9402a15 	stw	r5,168(sp)
    4728:	8c7fe004 	addi	r17,r17,-128
    472c:	0037d706 	br	268c <__alt_mem_onchip_memory2_0+0xf80015ec>
    4730:	d8c02a17 	ldw	r3,168(sp)
    4734:	18c00084 	addi	r3,r3,2
    4738:	d8c02b15 	stw	r3,172(sp)
    473c:	1805883a 	mov	r2,r3
    4740:	183d970e 	bge	r3,zero,3da0 <__alt_mem_onchip_memory2_0+0xf8002d00>
    4744:	003fd706 	br	46a4 <__alt_mem_onchip_memory2_0+0xf8003604>
    4748:	0005883a 	mov	r2,zero
    474c:	003f8f06 	br	458c <__alt_mem_onchip_memory2_0+0xf80034ec>
    4750:	9080004c 	andi	r2,r18,1
    4754:	103f821e 	bne	r2,zero,4560 <__alt_mem_onchip_memory2_0+0xf80034c0>
    4758:	d8802117 	ldw	r2,132(sp)
    475c:	1405c83a 	sub	r2,r2,r16
    4760:	d8803315 	stw	r2,204(sp)
    4764:	b47ef426 	beq	r22,r17,4338 <__alt_mem_onchip_memory2_0+0xf8003298>
    4768:	dd802617 	ldw	r22,152(sp)
    476c:	003f1206 	br	43b8 <__alt_mem_onchip_memory2_0+0xf8003318>
    4770:	d8c02b03 	ldbu	r3,172(sp)
    4774:	d8c02785 	stb	r3,158(sp)
    4778:	0038df06 	br	2af8 <__alt_mem_onchip_memory2_0+0xf8001a58>
    477c:	d8c02b03 	ldbu	r3,172(sp)
    4780:	d8c02785 	stb	r3,158(sp)
    4784:	0038aa06 	br	2a30 <__alt_mem_onchip_memory2_0+0xf8001990>
    4788:	d8c02b03 	ldbu	r3,172(sp)
    478c:	d8c02785 	stb	r3,158(sp)
    4790:	003a4306 	br	30a0 <__alt_mem_onchip_memory2_0+0xf8002000>
    4794:	d8c02b03 	ldbu	r3,172(sp)
    4798:	d8c02785 	stb	r3,158(sp)
    479c:	003af506 	br	3374 <__alt_mem_onchip_memory2_0+0xf80022d4>
    47a0:	0005883a 	mov	r2,zero
    47a4:	003d7b06 	br	3d94 <__alt_mem_onchip_memory2_0+0xf8002cf4>
    47a8:	d8802344 	addi	r2,sp,141
    47ac:	003f1006 	br	43f0 <__alt_mem_onchip_memory2_0+0xf8003350>
    47b0:	d8c02b03 	ldbu	r3,172(sp)
    47b4:	d8c02785 	stb	r3,158(sp)
    47b8:	0038fd06 	br	2bb0 <__alt_mem_onchip_memory2_0+0xf8001b10>
    47bc:	d8c02b03 	ldbu	r3,172(sp)
    47c0:	d8c02785 	stb	r3,158(sp)
    47c4:	003a9706 	br	3224 <__alt_mem_onchip_memory2_0+0xf8002184>
    47c8:	d8c02b03 	ldbu	r3,172(sp)
    47cc:	d8c02785 	stb	r3,158(sp)
    47d0:	003a1806 	br	3034 <__alt_mem_onchip_memory2_0+0xf8001f94>
    47d4:	d8c02b03 	ldbu	r3,172(sp)
    47d8:	d8c02785 	stb	r3,158(sp)
    47dc:	003abe06 	br	32d8 <__alt_mem_onchip_memory2_0+0xf8002238>

000047e0 <__vfprintf_internal>:
    47e0:	00800074 	movhi	r2,1
    47e4:	108ff204 	addi	r2,r2,16328
    47e8:	300f883a 	mov	r7,r6
    47ec:	280d883a 	mov	r6,r5
    47f0:	200b883a 	mov	r5,r4
    47f4:	11000017 	ldw	r4,0(r2)
    47f8:	00025041 	jmpi	2504 <___vfprintf_internal_r>

000047fc <__sbprintf>:
    47fc:	2880030b 	ldhu	r2,12(r5)
    4800:	2ac01917 	ldw	r11,100(r5)
    4804:	2a80038b 	ldhu	r10,14(r5)
    4808:	2a400717 	ldw	r9,28(r5)
    480c:	2a000917 	ldw	r8,36(r5)
    4810:	defee204 	addi	sp,sp,-1144
    4814:	00c10004 	movi	r3,1024
    4818:	dc011a15 	stw	r16,1128(sp)
    481c:	10bfff4c 	andi	r2,r2,65533
    4820:	2821883a 	mov	r16,r5
    4824:	d8cb883a 	add	r5,sp,r3
    4828:	dc811c15 	stw	r18,1136(sp)
    482c:	dc411b15 	stw	r17,1132(sp)
    4830:	dfc11d15 	stw	ra,1140(sp)
    4834:	2025883a 	mov	r18,r4
    4838:	d881030d 	sth	r2,1036(sp)
    483c:	dac11915 	stw	r11,1124(sp)
    4840:	da81038d 	sth	r10,1038(sp)
    4844:	da410715 	stw	r9,1052(sp)
    4848:	da010915 	stw	r8,1060(sp)
    484c:	dec10015 	stw	sp,1024(sp)
    4850:	dec10415 	stw	sp,1040(sp)
    4854:	d8c10215 	stw	r3,1032(sp)
    4858:	d8c10515 	stw	r3,1044(sp)
    485c:	d8010615 	stw	zero,1048(sp)
    4860:	00025040 	call	2504 <___vfprintf_internal_r>
    4864:	1023883a 	mov	r17,r2
    4868:	10000416 	blt	r2,zero,487c <__sbprintf+0x80>
    486c:	d9410004 	addi	r5,sp,1024
    4870:	9009883a 	mov	r4,r18
    4874:	00064d80 	call	64d8 <_fflush_r>
    4878:	10000d1e 	bne	r2,zero,48b0 <__sbprintf+0xb4>
    487c:	d881030b 	ldhu	r2,1036(sp)
    4880:	1080100c 	andi	r2,r2,64
    4884:	10000326 	beq	r2,zero,4894 <__sbprintf+0x98>
    4888:	8080030b 	ldhu	r2,12(r16)
    488c:	10801014 	ori	r2,r2,64
    4890:	8080030d 	sth	r2,12(r16)
    4894:	8805883a 	mov	r2,r17
    4898:	dfc11d17 	ldw	ra,1140(sp)
    489c:	dc811c17 	ldw	r18,1136(sp)
    48a0:	dc411b17 	ldw	r17,1132(sp)
    48a4:	dc011a17 	ldw	r16,1128(sp)
    48a8:	dec11e04 	addi	sp,sp,1144
    48ac:	f800283a 	ret
    48b0:	047fffc4 	movi	r17,-1
    48b4:	003ff106 	br	487c <__alt_mem_onchip_memory2_0+0xf80037dc>

000048b8 <__swsetup_r>:
    48b8:	00800074 	movhi	r2,1
    48bc:	defffd04 	addi	sp,sp,-12
    48c0:	108ff204 	addi	r2,r2,16328
    48c4:	dc400115 	stw	r17,4(sp)
    48c8:	2023883a 	mov	r17,r4
    48cc:	11000017 	ldw	r4,0(r2)
    48d0:	dc000015 	stw	r16,0(sp)
    48d4:	dfc00215 	stw	ra,8(sp)
    48d8:	2821883a 	mov	r16,r5
    48dc:	20000226 	beq	r4,zero,48e8 <__swsetup_r+0x30>
    48e0:	20800e17 	ldw	r2,56(r4)
    48e4:	10003126 	beq	r2,zero,49ac <__swsetup_r+0xf4>
    48e8:	8080030b 	ldhu	r2,12(r16)
    48ec:	10c0020c 	andi	r3,r2,8
    48f0:	1009883a 	mov	r4,r2
    48f4:	18000f26 	beq	r3,zero,4934 <__swsetup_r+0x7c>
    48f8:	80c00417 	ldw	r3,16(r16)
    48fc:	18001526 	beq	r3,zero,4954 <__swsetup_r+0x9c>
    4900:	1100004c 	andi	r4,r2,1
    4904:	20001c1e 	bne	r4,zero,4978 <__swsetup_r+0xc0>
    4908:	1080008c 	andi	r2,r2,2
    490c:	1000291e 	bne	r2,zero,49b4 <__swsetup_r+0xfc>
    4910:	80800517 	ldw	r2,20(r16)
    4914:	80800215 	stw	r2,8(r16)
    4918:	18001c26 	beq	r3,zero,498c <__swsetup_r+0xd4>
    491c:	0005883a 	mov	r2,zero
    4920:	dfc00217 	ldw	ra,8(sp)
    4924:	dc400117 	ldw	r17,4(sp)
    4928:	dc000017 	ldw	r16,0(sp)
    492c:	dec00304 	addi	sp,sp,12
    4930:	f800283a 	ret
    4934:	2080040c 	andi	r2,r4,16
    4938:	10002e26 	beq	r2,zero,49f4 <__swsetup_r+0x13c>
    493c:	2080010c 	andi	r2,r4,4
    4940:	10001e1e 	bne	r2,zero,49bc <__swsetup_r+0x104>
    4944:	80c00417 	ldw	r3,16(r16)
    4948:	20800214 	ori	r2,r4,8
    494c:	8080030d 	sth	r2,12(r16)
    4950:	183feb1e 	bne	r3,zero,4900 <__alt_mem_onchip_memory2_0+0xf8003860>
    4954:	1100a00c 	andi	r4,r2,640
    4958:	01408004 	movi	r5,512
    495c:	217fe826 	beq	r4,r5,4900 <__alt_mem_onchip_memory2_0+0xf8003860>
    4960:	800b883a 	mov	r5,r16
    4964:	8809883a 	mov	r4,r17
    4968:	00074740 	call	7474 <__smakebuf_r>
    496c:	8080030b 	ldhu	r2,12(r16)
    4970:	80c00417 	ldw	r3,16(r16)
    4974:	003fe206 	br	4900 <__alt_mem_onchip_memory2_0+0xf8003860>
    4978:	80800517 	ldw	r2,20(r16)
    497c:	80000215 	stw	zero,8(r16)
    4980:	0085c83a 	sub	r2,zero,r2
    4984:	80800615 	stw	r2,24(r16)
    4988:	183fe41e 	bne	r3,zero,491c <__alt_mem_onchip_memory2_0+0xf800387c>
    498c:	80c0030b 	ldhu	r3,12(r16)
    4990:	0005883a 	mov	r2,zero
    4994:	1900200c 	andi	r4,r3,128
    4998:	203fe126 	beq	r4,zero,4920 <__alt_mem_onchip_memory2_0+0xf8003880>
    499c:	18c01014 	ori	r3,r3,64
    49a0:	80c0030d 	sth	r3,12(r16)
    49a4:	00bfffc4 	movi	r2,-1
    49a8:	003fdd06 	br	4920 <__alt_mem_onchip_memory2_0+0xf8003880>
    49ac:	00068c40 	call	68c4 <__sinit>
    49b0:	003fcd06 	br	48e8 <__alt_mem_onchip_memory2_0+0xf8003848>
    49b4:	0005883a 	mov	r2,zero
    49b8:	003fd606 	br	4914 <__alt_mem_onchip_memory2_0+0xf8003874>
    49bc:	81400c17 	ldw	r5,48(r16)
    49c0:	28000626 	beq	r5,zero,49dc <__swsetup_r+0x124>
    49c4:	80801004 	addi	r2,r16,64
    49c8:	28800326 	beq	r5,r2,49d8 <__swsetup_r+0x120>
    49cc:	8809883a 	mov	r4,r17
    49d0:	0006a380 	call	6a38 <_free_r>
    49d4:	8100030b 	ldhu	r4,12(r16)
    49d8:	80000c15 	stw	zero,48(r16)
    49dc:	80c00417 	ldw	r3,16(r16)
    49e0:	00bff6c4 	movi	r2,-37
    49e4:	1108703a 	and	r4,r2,r4
    49e8:	80000115 	stw	zero,4(r16)
    49ec:	80c00015 	stw	r3,0(r16)
    49f0:	003fd506 	br	4948 <__alt_mem_onchip_memory2_0+0xf80038a8>
    49f4:	00800244 	movi	r2,9
    49f8:	88800015 	stw	r2,0(r17)
    49fc:	20801014 	ori	r2,r4,64
    4a00:	8080030d 	sth	r2,12(r16)
    4a04:	00bfffc4 	movi	r2,-1
    4a08:	003fc506 	br	4920 <__alt_mem_onchip_memory2_0+0xf8003880>

00004a0c <quorem>:
    4a0c:	defff204 	addi	sp,sp,-56
    4a10:	ddc00b15 	stw	r23,44(sp)
    4a14:	20800417 	ldw	r2,16(r4)
    4a18:	2dc00417 	ldw	r23,16(r5)
    4a1c:	dfc00d15 	stw	ra,52(sp)
    4a20:	df000c15 	stw	fp,48(sp)
    4a24:	dd800a15 	stw	r22,40(sp)
    4a28:	dd400915 	stw	r21,36(sp)
    4a2c:	dd000815 	stw	r20,32(sp)
    4a30:	dcc00715 	stw	r19,28(sp)
    4a34:	dc800615 	stw	r18,24(sp)
    4a38:	dc400515 	stw	r17,20(sp)
    4a3c:	dc000415 	stw	r16,16(sp)
    4a40:	15c07a16 	blt	r2,r23,4c2c <quorem+0x220>
    4a44:	bdffffc4 	addi	r23,r23,-1
    4a48:	bde9883a 	add	r20,r23,r23
    4a4c:	28c00504 	addi	r3,r5,20
    4a50:	a529883a 	add	r20,r20,r20
    4a54:	1d39883a 	add	fp,r3,r20
    4a58:	24c00504 	addi	r19,r4,20
    4a5c:	d9400215 	stw	r5,8(sp)
    4a60:	9d29883a 	add	r20,r19,r20
    4a64:	e1400017 	ldw	r5,0(fp)
    4a68:	d9000015 	stw	r4,0(sp)
    4a6c:	a1000017 	ldw	r4,0(r20)
    4a70:	29400044 	addi	r5,r5,1
    4a74:	d8c00115 	stw	r3,4(sp)
    4a78:	dd000315 	stw	r20,12(sp)
    4a7c:	000c8e40 	call	c8e4 <__udivsi3>
    4a80:	1025883a 	mov	r18,r2
    4a84:	10003026 	beq	r2,zero,4b48 <quorem+0x13c>
    4a88:	dc400117 	ldw	r17,4(sp)
    4a8c:	9829883a 	mov	r20,r19
    4a90:	002d883a 	mov	r22,zero
    4a94:	0021883a 	mov	r16,zero
    4a98:	8d400017 	ldw	r21,0(r17)
    4a9c:	900b883a 	mov	r5,r18
    4aa0:	8c400104 	addi	r17,r17,4
    4aa4:	a93fffcc 	andi	r4,r21,65535
    4aa8:	000c9a00 	call	c9a0 <__mulsi3>
    4aac:	a808d43a 	srli	r4,r21,16
    4ab0:	900b883a 	mov	r5,r18
    4ab4:	15ad883a 	add	r22,r2,r22
    4ab8:	000c9a00 	call	c9a0 <__mulsi3>
    4abc:	a1000017 	ldw	r4,0(r20)
    4ac0:	b00cd43a 	srli	r6,r22,16
    4ac4:	b0ffffcc 	andi	r3,r22,65535
    4ac8:	217fffcc 	andi	r5,r4,65535
    4acc:	2c21883a 	add	r16,r5,r16
    4ad0:	80c7c83a 	sub	r3,r16,r3
    4ad4:	2008d43a 	srli	r4,r4,16
    4ad8:	1185883a 	add	r2,r2,r6
    4adc:	1821d43a 	srai	r16,r3,16
    4ae0:	117fffcc 	andi	r5,r2,65535
    4ae4:	2149c83a 	sub	r4,r4,r5
    4ae8:	2421883a 	add	r16,r4,r16
    4aec:	8008943a 	slli	r4,r16,16
    4af0:	18ffffcc 	andi	r3,r3,65535
    4af4:	102cd43a 	srli	r22,r2,16
    4af8:	20c8b03a 	or	r4,r4,r3
    4afc:	a1000015 	stw	r4,0(r20)
    4b00:	8021d43a 	srai	r16,r16,16
    4b04:	a5000104 	addi	r20,r20,4
    4b08:	e47fe32e 	bgeu	fp,r17,4a98 <__alt_mem_onchip_memory2_0+0xf80039f8>
    4b0c:	d8c00317 	ldw	r3,12(sp)
    4b10:	18800017 	ldw	r2,0(r3)
    4b14:	10000c1e 	bne	r2,zero,4b48 <quorem+0x13c>
    4b18:	18bfff04 	addi	r2,r3,-4
    4b1c:	9880082e 	bgeu	r19,r2,4b40 <quorem+0x134>
    4b20:	18ffff17 	ldw	r3,-4(r3)
    4b24:	18000326 	beq	r3,zero,4b34 <quorem+0x128>
    4b28:	00000506 	br	4b40 <quorem+0x134>
    4b2c:	10c00017 	ldw	r3,0(r2)
    4b30:	1800031e 	bne	r3,zero,4b40 <quorem+0x134>
    4b34:	10bfff04 	addi	r2,r2,-4
    4b38:	bdffffc4 	addi	r23,r23,-1
    4b3c:	98bffb36 	bltu	r19,r2,4b2c <__alt_mem_onchip_memory2_0+0xf8003a8c>
    4b40:	d8c00017 	ldw	r3,0(sp)
    4b44:	1dc00415 	stw	r23,16(r3)
    4b48:	d9400217 	ldw	r5,8(sp)
    4b4c:	d9000017 	ldw	r4,0(sp)
    4b50:	0008c700 	call	8c70 <__mcmp>
    4b54:	10002816 	blt	r2,zero,4bf8 <quorem+0x1ec>
    4b58:	dc400117 	ldw	r17,4(sp)
    4b5c:	94800044 	addi	r18,r18,1
    4b60:	980d883a 	mov	r6,r19
    4b64:	0007883a 	mov	r3,zero
    4b68:	31000017 	ldw	r4,0(r6)
    4b6c:	89400017 	ldw	r5,0(r17)
    4b70:	31800104 	addi	r6,r6,4
    4b74:	20bfffcc 	andi	r2,r4,65535
    4b78:	10c7883a 	add	r3,r2,r3
    4b7c:	28bfffcc 	andi	r2,r5,65535
    4b80:	1885c83a 	sub	r2,r3,r2
    4b84:	280ad43a 	srli	r5,r5,16
    4b88:	2008d43a 	srli	r4,r4,16
    4b8c:	1007d43a 	srai	r3,r2,16
    4b90:	10bfffcc 	andi	r2,r2,65535
    4b94:	2149c83a 	sub	r4,r4,r5
    4b98:	20c9883a 	add	r4,r4,r3
    4b9c:	200a943a 	slli	r5,r4,16
    4ba0:	8c400104 	addi	r17,r17,4
    4ba4:	2007d43a 	srai	r3,r4,16
    4ba8:	2884b03a 	or	r2,r5,r2
    4bac:	30bfff15 	stw	r2,-4(r6)
    4bb0:	e47fed2e 	bgeu	fp,r17,4b68 <__alt_mem_onchip_memory2_0+0xf8003ac8>
    4bb4:	bdc5883a 	add	r2,r23,r23
    4bb8:	1085883a 	add	r2,r2,r2
    4bbc:	9887883a 	add	r3,r19,r2
    4bc0:	18800017 	ldw	r2,0(r3)
    4bc4:	10000c1e 	bne	r2,zero,4bf8 <quorem+0x1ec>
    4bc8:	18bfff04 	addi	r2,r3,-4
    4bcc:	9880082e 	bgeu	r19,r2,4bf0 <quorem+0x1e4>
    4bd0:	18ffff17 	ldw	r3,-4(r3)
    4bd4:	18000326 	beq	r3,zero,4be4 <quorem+0x1d8>
    4bd8:	00000506 	br	4bf0 <quorem+0x1e4>
    4bdc:	10c00017 	ldw	r3,0(r2)
    4be0:	1800031e 	bne	r3,zero,4bf0 <quorem+0x1e4>
    4be4:	10bfff04 	addi	r2,r2,-4
    4be8:	bdffffc4 	addi	r23,r23,-1
    4bec:	98bffb36 	bltu	r19,r2,4bdc <__alt_mem_onchip_memory2_0+0xf8003b3c>
    4bf0:	d8c00017 	ldw	r3,0(sp)
    4bf4:	1dc00415 	stw	r23,16(r3)
    4bf8:	9005883a 	mov	r2,r18
    4bfc:	dfc00d17 	ldw	ra,52(sp)
    4c00:	df000c17 	ldw	fp,48(sp)
    4c04:	ddc00b17 	ldw	r23,44(sp)
    4c08:	dd800a17 	ldw	r22,40(sp)
    4c0c:	dd400917 	ldw	r21,36(sp)
    4c10:	dd000817 	ldw	r20,32(sp)
    4c14:	dcc00717 	ldw	r19,28(sp)
    4c18:	dc800617 	ldw	r18,24(sp)
    4c1c:	dc400517 	ldw	r17,20(sp)
    4c20:	dc000417 	ldw	r16,16(sp)
    4c24:	dec00e04 	addi	sp,sp,56
    4c28:	f800283a 	ret
    4c2c:	0005883a 	mov	r2,zero
    4c30:	003ff206 	br	4bfc <__alt_mem_onchip_memory2_0+0xf8003b5c>

00004c34 <_dtoa_r>:
    4c34:	20801017 	ldw	r2,64(r4)
    4c38:	deffde04 	addi	sp,sp,-136
    4c3c:	df002015 	stw	fp,128(sp)
    4c40:	dcc01b15 	stw	r19,108(sp)
    4c44:	dc801a15 	stw	r18,104(sp)
    4c48:	dc401915 	stw	r17,100(sp)
    4c4c:	dc001815 	stw	r16,96(sp)
    4c50:	dfc02115 	stw	ra,132(sp)
    4c54:	ddc01f15 	stw	r23,124(sp)
    4c58:	dd801e15 	stw	r22,120(sp)
    4c5c:	dd401d15 	stw	r21,116(sp)
    4c60:	dd001c15 	stw	r20,112(sp)
    4c64:	d9c00315 	stw	r7,12(sp)
    4c68:	2039883a 	mov	fp,r4
    4c6c:	3023883a 	mov	r17,r6
    4c70:	2825883a 	mov	r18,r5
    4c74:	dc002417 	ldw	r16,144(sp)
    4c78:	3027883a 	mov	r19,r6
    4c7c:	10000826 	beq	r2,zero,4ca0 <_dtoa_r+0x6c>
    4c80:	21801117 	ldw	r6,68(r4)
    4c84:	00c00044 	movi	r3,1
    4c88:	100b883a 	mov	r5,r2
    4c8c:	1986983a 	sll	r3,r3,r6
    4c90:	11800115 	stw	r6,4(r2)
    4c94:	10c00215 	stw	r3,8(r2)
    4c98:	00083940 	call	8394 <_Bfree>
    4c9c:	e0001015 	stw	zero,64(fp)
    4ca0:	88002e16 	blt	r17,zero,4d5c <_dtoa_r+0x128>
    4ca4:	80000015 	stw	zero,0(r16)
    4ca8:	889ffc2c 	andhi	r2,r17,32752
    4cac:	00dffc34 	movhi	r3,32752
    4cb0:	10c01c26 	beq	r2,r3,4d24 <_dtoa_r+0xf0>
    4cb4:	000d883a 	mov	r6,zero
    4cb8:	000f883a 	mov	r7,zero
    4cbc:	9009883a 	mov	r4,r18
    4cc0:	980b883a 	mov	r5,r19
    4cc4:	000dc440 	call	dc44 <__eqdf2>
    4cc8:	10002b1e 	bne	r2,zero,4d78 <_dtoa_r+0x144>
    4ccc:	d9c02317 	ldw	r7,140(sp)
    4cd0:	00800044 	movi	r2,1
    4cd4:	38800015 	stw	r2,0(r7)
    4cd8:	d8802517 	ldw	r2,148(sp)
    4cdc:	10019e26 	beq	r2,zero,5358 <_dtoa_r+0x724>
    4ce0:	d8c02517 	ldw	r3,148(sp)
    4ce4:	00800074 	movhi	r2,1
    4ce8:	10889744 	addi	r2,r2,8797
    4cec:	18800015 	stw	r2,0(r3)
    4cf0:	10bfffc4 	addi	r2,r2,-1
    4cf4:	dfc02117 	ldw	ra,132(sp)
    4cf8:	df002017 	ldw	fp,128(sp)
    4cfc:	ddc01f17 	ldw	r23,124(sp)
    4d00:	dd801e17 	ldw	r22,120(sp)
    4d04:	dd401d17 	ldw	r21,116(sp)
    4d08:	dd001c17 	ldw	r20,112(sp)
    4d0c:	dcc01b17 	ldw	r19,108(sp)
    4d10:	dc801a17 	ldw	r18,104(sp)
    4d14:	dc401917 	ldw	r17,100(sp)
    4d18:	dc001817 	ldw	r16,96(sp)
    4d1c:	dec02204 	addi	sp,sp,136
    4d20:	f800283a 	ret
    4d24:	d8c02317 	ldw	r3,140(sp)
    4d28:	0089c3c4 	movi	r2,9999
    4d2c:	18800015 	stw	r2,0(r3)
    4d30:	90017726 	beq	r18,zero,5310 <_dtoa_r+0x6dc>
    4d34:	00800074 	movhi	r2,1
    4d38:	1088a304 	addi	r2,r2,8844
    4d3c:	d9002517 	ldw	r4,148(sp)
    4d40:	203fec26 	beq	r4,zero,4cf4 <__alt_mem_onchip_memory2_0+0xf8003c54>
    4d44:	10c000c7 	ldb	r3,3(r2)
    4d48:	1801781e 	bne	r3,zero,532c <_dtoa_r+0x6f8>
    4d4c:	10c000c4 	addi	r3,r2,3
    4d50:	d9802517 	ldw	r6,148(sp)
    4d54:	30c00015 	stw	r3,0(r6)
    4d58:	003fe606 	br	4cf4 <__alt_mem_onchip_memory2_0+0xf8003c54>
    4d5c:	04e00034 	movhi	r19,32768
    4d60:	9cffffc4 	addi	r19,r19,-1
    4d64:	00800044 	movi	r2,1
    4d68:	8ce6703a 	and	r19,r17,r19
    4d6c:	80800015 	stw	r2,0(r16)
    4d70:	9823883a 	mov	r17,r19
    4d74:	003fcc06 	br	4ca8 <__alt_mem_onchip_memory2_0+0xf8003c08>
    4d78:	d8800204 	addi	r2,sp,8
    4d7c:	d8800015 	stw	r2,0(sp)
    4d80:	d9c00104 	addi	r7,sp,4
    4d84:	900b883a 	mov	r5,r18
    4d88:	980d883a 	mov	r6,r19
    4d8c:	e009883a 	mov	r4,fp
    4d90:	8820d53a 	srli	r16,r17,20
    4d94:	000903c0 	call	903c <__d2b>
    4d98:	d8800915 	stw	r2,36(sp)
    4d9c:	8001651e 	bne	r16,zero,5334 <_dtoa_r+0x700>
    4da0:	dd800217 	ldw	r22,8(sp)
    4da4:	dc000117 	ldw	r16,4(sp)
    4da8:	00800804 	movi	r2,32
    4dac:	b421883a 	add	r16,r22,r16
    4db0:	80c10c84 	addi	r3,r16,1074
    4db4:	10c2d10e 	bge	r2,r3,58fc <_dtoa_r+0xcc8>
    4db8:	00801004 	movi	r2,64
    4dbc:	81010484 	addi	r4,r16,1042
    4dc0:	10c7c83a 	sub	r3,r2,r3
    4dc4:	9108d83a 	srl	r4,r18,r4
    4dc8:	88e2983a 	sll	r17,r17,r3
    4dcc:	2448b03a 	or	r4,r4,r17
    4dd0:	000f1600 	call	f160 <__floatunsidf>
    4dd4:	017f8434 	movhi	r5,65040
    4dd8:	01800044 	movi	r6,1
    4ddc:	1009883a 	mov	r4,r2
    4de0:	194b883a 	add	r5,r3,r5
    4de4:	843fffc4 	addi	r16,r16,-1
    4de8:	d9801115 	stw	r6,68(sp)
    4dec:	000d883a 	mov	r6,zero
    4df0:	01cffe34 	movhi	r7,16376
    4df4:	000e7080 	call	e708 <__subdf3>
    4df8:	0198dbf4 	movhi	r6,25455
    4dfc:	01cff4f4 	movhi	r7,16339
    4e00:	3190d844 	addi	r6,r6,17249
    4e04:	39e1e9c4 	addi	r7,r7,-30809
    4e08:	1009883a 	mov	r4,r2
    4e0c:	180b883a 	mov	r5,r3
    4e10:	000de9c0 	call	de9c <__muldf3>
    4e14:	01a2d874 	movhi	r6,35681
    4e18:	01cff1f4 	movhi	r7,16327
    4e1c:	31b22cc4 	addi	r6,r6,-14157
    4e20:	39e28a04 	addi	r7,r7,-30168
    4e24:	180b883a 	mov	r5,r3
    4e28:	1009883a 	mov	r4,r2
    4e2c:	000c9c80 	call	c9c8 <__adddf3>
    4e30:	8009883a 	mov	r4,r16
    4e34:	1029883a 	mov	r20,r2
    4e38:	1823883a 	mov	r17,r3
    4e3c:	000f0840 	call	f084 <__floatsidf>
    4e40:	019427f4 	movhi	r6,20639
    4e44:	01cff4f4 	movhi	r7,16339
    4e48:	319e7ec4 	addi	r6,r6,31227
    4e4c:	39d104c4 	addi	r7,r7,17427
    4e50:	1009883a 	mov	r4,r2
    4e54:	180b883a 	mov	r5,r3
    4e58:	000de9c0 	call	de9c <__muldf3>
    4e5c:	100d883a 	mov	r6,r2
    4e60:	180f883a 	mov	r7,r3
    4e64:	a009883a 	mov	r4,r20
    4e68:	880b883a 	mov	r5,r17
    4e6c:	000c9c80 	call	c9c8 <__adddf3>
    4e70:	1009883a 	mov	r4,r2
    4e74:	180b883a 	mov	r5,r3
    4e78:	1029883a 	mov	r20,r2
    4e7c:	1823883a 	mov	r17,r3
    4e80:	000f0040 	call	f004 <__fixdfsi>
    4e84:	000d883a 	mov	r6,zero
    4e88:	000f883a 	mov	r7,zero
    4e8c:	a009883a 	mov	r4,r20
    4e90:	880b883a 	mov	r5,r17
    4e94:	d8800515 	stw	r2,20(sp)
    4e98:	000dda80 	call	dda8 <__ledf2>
    4e9c:	10028716 	blt	r2,zero,58bc <_dtoa_r+0xc88>
    4ea0:	d8c00517 	ldw	r3,20(sp)
    4ea4:	00800584 	movi	r2,22
    4ea8:	10c27536 	bltu	r2,r3,5880 <_dtoa_r+0xc4c>
    4eac:	180490fa 	slli	r2,r3,3
    4eb0:	00c00074 	movhi	r3,1
    4eb4:	18c8bf04 	addi	r3,r3,8956
    4eb8:	1885883a 	add	r2,r3,r2
    4ebc:	11000017 	ldw	r4,0(r2)
    4ec0:	11400117 	ldw	r5,4(r2)
    4ec4:	900d883a 	mov	r6,r18
    4ec8:	980f883a 	mov	r7,r19
    4ecc:	000dccc0 	call	dccc <__gedf2>
    4ed0:	00828d0e 	bge	zero,r2,5908 <_dtoa_r+0xcd4>
    4ed4:	d9000517 	ldw	r4,20(sp)
    4ed8:	d8000e15 	stw	zero,56(sp)
    4edc:	213fffc4 	addi	r4,r4,-1
    4ee0:	d9000515 	stw	r4,20(sp)
    4ee4:	b42dc83a 	sub	r22,r22,r16
    4ee8:	b5bfffc4 	addi	r22,r22,-1
    4eec:	b0026f16 	blt	r22,zero,58ac <_dtoa_r+0xc78>
    4ef0:	d8000815 	stw	zero,32(sp)
    4ef4:	d9c00517 	ldw	r7,20(sp)
    4ef8:	38026416 	blt	r7,zero,588c <_dtoa_r+0xc58>
    4efc:	b1ed883a 	add	r22,r22,r7
    4f00:	d9c00d15 	stw	r7,52(sp)
    4f04:	d8000a15 	stw	zero,40(sp)
    4f08:	d9800317 	ldw	r6,12(sp)
    4f0c:	00800244 	movi	r2,9
    4f10:	11811436 	bltu	r2,r6,5364 <_dtoa_r+0x730>
    4f14:	00800144 	movi	r2,5
    4f18:	1184e10e 	bge	r2,r6,62a0 <_dtoa_r+0x166c>
    4f1c:	31bfff04 	addi	r6,r6,-4
    4f20:	d9800315 	stw	r6,12(sp)
    4f24:	0023883a 	mov	r17,zero
    4f28:	d9800317 	ldw	r6,12(sp)
    4f2c:	008000c4 	movi	r2,3
    4f30:	30836726 	beq	r6,r2,5cd0 <_dtoa_r+0x109c>
    4f34:	1183410e 	bge	r2,r6,5c3c <_dtoa_r+0x1008>
    4f38:	d9c00317 	ldw	r7,12(sp)
    4f3c:	00800104 	movi	r2,4
    4f40:	38827c26 	beq	r7,r2,5934 <_dtoa_r+0xd00>
    4f44:	00800144 	movi	r2,5
    4f48:	3884c41e 	bne	r7,r2,625c <_dtoa_r+0x1628>
    4f4c:	00800044 	movi	r2,1
    4f50:	d8800b15 	stw	r2,44(sp)
    4f54:	d8c00517 	ldw	r3,20(sp)
    4f58:	d9002217 	ldw	r4,136(sp)
    4f5c:	1907883a 	add	r3,r3,r4
    4f60:	19800044 	addi	r6,r3,1
    4f64:	d8c00c15 	stw	r3,48(sp)
    4f68:	d9800615 	stw	r6,24(sp)
    4f6c:	0183a40e 	bge	zero,r6,5e00 <_dtoa_r+0x11cc>
    4f70:	d9800617 	ldw	r6,24(sp)
    4f74:	3021883a 	mov	r16,r6
    4f78:	e0001115 	stw	zero,68(fp)
    4f7c:	008005c4 	movi	r2,23
    4f80:	1184c92e 	bgeu	r2,r6,62a8 <_dtoa_r+0x1674>
    4f84:	00c00044 	movi	r3,1
    4f88:	00800104 	movi	r2,4
    4f8c:	1085883a 	add	r2,r2,r2
    4f90:	11000504 	addi	r4,r2,20
    4f94:	180b883a 	mov	r5,r3
    4f98:	18c00044 	addi	r3,r3,1
    4f9c:	313ffb2e 	bgeu	r6,r4,4f8c <__alt_mem_onchip_memory2_0+0xf8003eec>
    4fa0:	e1401115 	stw	r5,68(fp)
    4fa4:	e009883a 	mov	r4,fp
    4fa8:	00082ec0 	call	82ec <_Balloc>
    4fac:	d8800715 	stw	r2,28(sp)
    4fb0:	e0801015 	stw	r2,64(fp)
    4fb4:	00800384 	movi	r2,14
    4fb8:	1400f736 	bltu	r2,r16,5398 <_dtoa_r+0x764>
    4fbc:	8800f626 	beq	r17,zero,5398 <_dtoa_r+0x764>
    4fc0:	d9c00517 	ldw	r7,20(sp)
    4fc4:	01c39a0e 	bge	zero,r7,5e30 <_dtoa_r+0x11fc>
    4fc8:	388003cc 	andi	r2,r7,15
    4fcc:	100490fa 	slli	r2,r2,3
    4fd0:	382bd13a 	srai	r21,r7,4
    4fd4:	00c00074 	movhi	r3,1
    4fd8:	18c8bf04 	addi	r3,r3,8956
    4fdc:	1885883a 	add	r2,r3,r2
    4fe0:	a8c0040c 	andi	r3,r21,16
    4fe4:	12400017 	ldw	r9,0(r2)
    4fe8:	12000117 	ldw	r8,4(r2)
    4fec:	18037926 	beq	r3,zero,5dd4 <_dtoa_r+0x11a0>
    4ff0:	00800074 	movhi	r2,1
    4ff4:	1088b504 	addi	r2,r2,8916
    4ff8:	11800817 	ldw	r6,32(r2)
    4ffc:	11c00917 	ldw	r7,36(r2)
    5000:	9009883a 	mov	r4,r18
    5004:	980b883a 	mov	r5,r19
    5008:	da001715 	stw	r8,92(sp)
    500c:	da401615 	stw	r9,88(sp)
    5010:	000d2740 	call	d274 <__divdf3>
    5014:	da001717 	ldw	r8,92(sp)
    5018:	da401617 	ldw	r9,88(sp)
    501c:	ad4003cc 	andi	r21,r21,15
    5020:	040000c4 	movi	r16,3
    5024:	1023883a 	mov	r17,r2
    5028:	1829883a 	mov	r20,r3
    502c:	a8001126 	beq	r21,zero,5074 <_dtoa_r+0x440>
    5030:	05c00074 	movhi	r23,1
    5034:	bdc8b504 	addi	r23,r23,8916
    5038:	4805883a 	mov	r2,r9
    503c:	4007883a 	mov	r3,r8
    5040:	a980004c 	andi	r6,r21,1
    5044:	1009883a 	mov	r4,r2
    5048:	a82bd07a 	srai	r21,r21,1
    504c:	180b883a 	mov	r5,r3
    5050:	30000426 	beq	r6,zero,5064 <_dtoa_r+0x430>
    5054:	b9800017 	ldw	r6,0(r23)
    5058:	b9c00117 	ldw	r7,4(r23)
    505c:	84000044 	addi	r16,r16,1
    5060:	000de9c0 	call	de9c <__muldf3>
    5064:	bdc00204 	addi	r23,r23,8
    5068:	a83ff51e 	bne	r21,zero,5040 <__alt_mem_onchip_memory2_0+0xf8003fa0>
    506c:	1013883a 	mov	r9,r2
    5070:	1811883a 	mov	r8,r3
    5074:	480d883a 	mov	r6,r9
    5078:	400f883a 	mov	r7,r8
    507c:	8809883a 	mov	r4,r17
    5080:	a00b883a 	mov	r5,r20
    5084:	000d2740 	call	d274 <__divdf3>
    5088:	d8800f15 	stw	r2,60(sp)
    508c:	d8c01015 	stw	r3,64(sp)
    5090:	d8c00e17 	ldw	r3,56(sp)
    5094:	18000626 	beq	r3,zero,50b0 <_dtoa_r+0x47c>
    5098:	d9000f17 	ldw	r4,60(sp)
    509c:	d9401017 	ldw	r5,64(sp)
    50a0:	000d883a 	mov	r6,zero
    50a4:	01cffc34 	movhi	r7,16368
    50a8:	000dda80 	call	dda8 <__ledf2>
    50ac:	10040b16 	blt	r2,zero,60dc <_dtoa_r+0x14a8>
    50b0:	8009883a 	mov	r4,r16
    50b4:	000f0840 	call	f084 <__floatsidf>
